(dp1
S'title'
p2
(dp3
S'type'
p4
S'string'
p5
sS'sortable'
p6
I2
sS'sql'
p7
S'CHAR(512) UNIQUE'
p8
ssS'url'
p9
(dp10
g4
g5
sg6
I5
sg7
S'CHAR(512)'
p11
ssS'likecount'
p12
(dp13
g4
S'integer'
p14
sg6
I3
sg7
S'INTEGER'
p15
ssS'file'
p16
(dp17
g4
S'upload'
p18
sg6
I6
sg7
S'CHAR(512)'
p19
ssS'uploaded_by'
p20
(dp21
g4
g5
sg6
I4
sg7
S'CHAR(512)'
p22
ssS'id'
p23
(dp24
g4
S'id'
p25
sg6
I1
sg7
S'INTEGER PRIMARY KEY AUTOINCREMENT'
p26
ss.