(dp1
S'output'
p2
S"<type 'exceptions.AttributeError'> 'NoneType' object has no attribute 'uploaded_by'"
p3
sS'layer'
p4
S'/home/manikanta/Study/web2py/applications/Just_Click_/views/default/show.html'
p5
sS'code'
p6
S'response.write(\'<!DOCTYPE html>\\n<!-- paulirish.com/2008/conditional-stylesheets-vs-css-hacks-answer-neither/ -->\\n<!--[if lt IE 7]><html class="ie ie6 ie-lte9 ie-lte8 ie-lte7 no-js" lang="\', escape=False)\nresponse.write(T.accepted_language or \'en\')\nresponse.write(\'"> <![endif]-->\\n<!--[if IE 7]><html class="ie ie7 ie-lte9 ie-lte8 ie-lte7 no-js" lang="\', escape=False)\nresponse.write(T.accepted_language or \'en\')\nresponse.write(\'"> <![endif]-->\\n<!--[if IE 8]><html class="ie ie8 ie-lte9 ie-lte8 no-js" lang="\', escape=False)\nresponse.write(T.accepted_language or \'en\')\nresponse.write(\'"> <![endif]-->\\n<!--[if IE 9]><html class="ie9 ie-lte9 no-js" lang="\', escape=False)\nresponse.write(T.accepted_language or \'en\')\nresponse.write(\'"> <![endif]-->\\n<!--[if (gt IE 9)|!(IE)]><!--> <html class="no-js" lang="\', escape=False)\nresponse.write(T.accepted_language or \'en\')\nresponse.write(\'"> <!--<![endif]-->\\n<head>\\n  <meta charset="utf-8" />\\n  <!-- www.phpied.com/conditional-comments-block-downloads/ -->\\n  <!-- Always force latest IE rendering engine\\n\\t   (even in intranet) & Chrome Frame\\n\\t   Remove this if you use the .htaccess -->\\n  <!--[if IE]>\\n    <meta http-equiv="X-UA-Compatible" content="IE=edge\', escape=False)\nresponse.write(not request.is_local and \',chrome=1\' or \'\')\nresponse.write(\'">\\n  <![endif]-->\\n  \\n  <title>\', escape=False)\nresponse.write(response.title or request.application)\nresponse.write(\'</title>\\n  \\n  <!-- http://dev.w3.org/html5/markup/meta.name.html -->\\n  <meta name="application-name" content="\', escape=False)\nresponse.write(request.application)\nresponse.write(\'" />\\n  \\n  <!-- Speaking of Google, don\\\'t forget to set your site up:\\n\\t   http://google.com/webmasters -->\\n  <meta name="google-site-verification" content="" />\\n\\n  <!--  Mobile Viewport Fix\\n\\t  j.mp/mobileviewport & davidbcalhoun.com/2010/viewport-metatag\\n\\t  device-width: Occupy full width of the screen in its current orientation\\n\\t  initial-scale = 1.0 retains dimensions instead of zooming out if page height > device height\\n\\t  user-scalable = yes allows the user to zoom in -->\\n  <meta name="viewport" content="width=device-width, initial-scale=1.0, user-scalable=yes">\\n  \\n  <!-- Place favicon.ico and apple-touch-icon.png in the root of your domain and delete these references -->\\n  <link rel="shortcut icon" href="\', escape=False)\nresponse.write(URL(\'static\',\'favicon.ico\'))\nresponse.write(\'" type="image/x-icon">\\n  <link rel="apple-touch-icon" href="\', escape=False)\nresponse.write(URL(\'static\',\'favicon.png\'))\nresponse.write(\'">\\n\\n  <!-- All JavaScript at the bottom, except for Modernizr which enables \\n\\t   HTML5 elements & feature detects -->\\n  <script src="\', escape=False)\nresponse.write(URL(\'static\',\'js/modernizr.custom.js\'))\nresponse.write(\'"></script>  \\n\\n  <!-- include stylesheets -->\\n  \', escape=False)\nresponse.files.append(URL(\'static\',\'css/skeleton.css\'))\nresponse.files.append(URL(\'static\',\'css/web2py.css\'))\nif response.menu:\n    response.files.append(URL(\'static\',\'css/superfish.css\'))\n    response.files.append(URL(\'static\',\'js/superfish.js\'))\n    pass\nresponse.write(\'\\n\\n  \', escape=False)\nresponse.write(\'<script type="text/javascript"><!--\\n    // These variables are used by the web2py_ajax_init function in web2py_ajax.js (which is loaded below).\\n    var w2p_ajax_confirm_message = "\', escape=False)\nresponse.write(T(\'Are you sure you want to delete this object?\'))\nresponse.write(\'";\\n    var w2p_ajax_date_format = "\', escape=False)\nresponse.write(T(\'%Y-%m-%d\'))\nresponse.write(\'";\\n    var w2p_ajax_datetime_format = "\', escape=False)\nresponse.write(T(\'%Y-%m-%d %H:%M:%S\'))\nresponse.write(\'";\\n    //--></script>\\n\', escape=False)\nresponse.files.insert(0,URL(\'static\',\'js/jquery.js\'))\nresponse.files.insert(1,URL(\'static\',\'css/calendar.css\'))\nresponse.files.insert(2,URL(\'static\',\'js/calendar.js\'))\nresponse.files.insert(3,URL(\'static\',\'js/web2py.js\'))\nresponse.include_meta()\nresponse.include_files()\nresponse.write(\'\\n\', escape=False)\nresponse.write(\'\\n\\n  \', escape=False)\nif response.menu:\n    response.write(\'\\n  <script type="text/javascript">\\n    jQuery(function(){ jQuery(\\\'ul.sf-menu\\\').supersubs({minWidth:12,maxWidth:30,extraWidth:3}).superfish(); });\\n  </script>\\n  \', escape=False)\n    pass\nresponse.write(\'\\n\\n  \', escape=False)\n# using sidebars need to know what sidebar you want to use\nleft_sidebar_enabled = globals().get(\'left_sidebar_enabled\',False)\nright_sidebar_enabled = globals().get(\'right_sidebar_enabled\',False)\nmiddle_columns = {0:\'sixteen\',1:\'twelve\',2:\'eight\'}[\n(left_sidebar_enabled and 1 or 0)+(right_sidebar_enabled and 1 or 0)]\nresponse.write(\'\\n\\n  <!-- uncomment here to load jquery-ui\\n  <link rel="stylesheet" href="http://ajax.googleapis.com/ajax/libs/jqueryui/1.8.16/themes/base/jquery-ui.css" type="text/css" media="all" />\\n  <script src="http://ajax.googleapis.com/ajax/libs/jqueryui/1.8.16/jquery-ui.min.js" type="text/javascript"></script>\\n  uncomment to load jquery-ui //-->\\n</head>\\n<body>\\n  <div class="wrapper"><!-- for sticky footer -->\\n  \\n    <div class="topbar">\\n      <div class="container">    \\n        <div class="sixteen columns">\\n          <div id="navbar">\', escape=False)\nresponse.write(\'auth\' in globals() and auth.navbar(separators=(\' \',\' | \',\'\')))\nresponse.write(\'</div>\\n          \', escape=False)\nis_mobile=request.user_agent().is_mobile\nresponse.write(\'\\n\\t  \', escape=False)\nif response.menu:\n    response.write(\'\\n          <div id="menu">\\n             \', escape=False)\n    response.write(MENU(response.menu, _class=\'mobile-menu\' if is_mobile else \'sf-menu\',mobile=is_mobile))\n    response.write(\'\\n          </div>\\n          \', escape=False)\n    pass\nresponse.write(\'\\n        </div>\\n      </div>\\n    </div><!-- topbar -->\\n    \\n    <div class="flash">\', escape=False)\nresponse.write(response.flash or \'\')\nresponse.write(\'</div>\\n    \\n    <div class="header">\\n      <div class="container">         \\n        <div class="sixteen columns">\\n          <h1 class="remove-bottom" style="margin-top: .5em;">\\n          \', escape=False)\nresponse.write(response.title or request.application)\nresponse.write(\'\\n          </h1>\\n          <h5>\', escape=False)\nresponse.write(response.subtitle or \'\')\nresponse.write(\'</h5>\\n        </div>\\n        <div class="sixteen columns">\\n          <div class="statusbar clearfix">\\n            \', escape=False)\nresponse.write(\'\\n            <div class="breadcrumbs">\', escape=False)\nresponse.write(request.function.replace(\'_\', \' \').title())\nresponse.write(\'</div>\\n            \', escape=False)\nresponse.write(\'\\n            <!-- AddToAny BEGIN -->\\n            <div style="float:right; padding-top: .25em;" class="a2a_kit a2a_default_style">\\n            <a class="a2a_dd" href="http://www.addtoany.com/share_save">Share</a></div>\\n            <script type="text/javascript" src="http://static.addtoany.com/menu/page.js"></script>\\n            <!-- AddToAny END -->\\n          </div>\\n        </div>\\n      </div>\\n    </div>\\n\\n    <div class="main">\\n      <div class="container">                 \\n        \', escape=False)\nif left_sidebar_enabled:\n    response.write(\'\\n        <div class="four columns left-sidebar">\\n          \', escape=False)\n    response.write(\'\\n          <h3>Left Sidebar</h3>\\n          <p></p>\\n          \', escape=False)\n    response.write(\'\\n        </div>\\n        \', escape=False)\n    pass\nresponse.write(\'\\n        \\n        <div class="\', escape=False)\nresponse.write(middle_columns)\nresponse.write(\' columns center">\\n          \', escape=False)\nresponse.write(\'\\n          \', escape=False)\nresponse.write(\'\\n\\n<p>\\n\', escape=False)\nresponse.write(LI(A("UPLOAD IMAGE HERE " , _href=URL("upload" , args=123))))\nresponse.write(\'\\n<p>\\n\', escape=False)\nw = auth.user.first_name+\'_\'+auth.user.last_name\nresponse.write(\'\\n\\n<table border=0>\\n<tr>\\n<td>\\n<h4>Image Posted by \', escape=False)\nresponse.write(image.uploaded_by)\nresponse.write(\': \', escape=False)\nresponse.write(image.title)\nresponse.write(\'</h4>\\n<center>\\n<img width="600px"\\n     src="\', escape=False)\nresponse.write(URL(\'download\', args=image.file))\nresponse.write(\'" />\\n</center>\\nNO. OF LIKES : \', escape=False)\nresponse.write(image.likecount)\nresponse.write(\'\\n<table border=0>\\n<tr>\\n<td>\\n\', escape=False)\nif not db(w==db.like.name)(image.id==db.like.imageid).select(db.like.ALL):\n    response.write(\'\\n\', escape=False)\n    response.write(LI(A(\'Like\' , _href=URL("like" , args=[w,image.id,image.likecount+1]))))\n    response.write(\'\\n\', escape=False)\n    pass\nresponse.write(\'\\n</td>\\n<td>\\n\', escape=False)\nresponse.write(LI(A(\'Show Comments\' , _href=URL("showimagecomments" , args=image.id))))\nresponse.write(\'\\n</td>\\n<td>\\n\', escape=False)\nif image.uploaded_by == auth.user.first_name :\n    response.write(\'\\n\', escape=False)\n    response.write(LI(A(\'Delete\' , _href=URL("delete" , args=[image.uploaded_by,image.id]))))\n    response.write(\'\\n\', escape=False)\n    pass\nresponse.write(\'\\n</td>\\n<td>\\n\', escape=False)\nresponse.write(LI(A(\'Delete as admin\' , _href=URL("deleteasadmin" , args=image.id))))\nresponse.write(\'\\n</td>\\n</tr>\\n</table>\\n</td>\\n<td>\\n</td>\\n<td>\\n<h4>All images</h4>\\n\', escape=False)\nfor image in images:\n    response.write(\'\\n    \', escape=False)\n    response.write(LI(A(image.title , _href=URL(\'show\' , args=image.id))))\n    response.write(\'\\n\', escape=False)\n    pass\nresponse.write(\'\\n</td>\\n</tr>\\n</table>\\n\', escape=False)\nresponse.write(\'\\n          \', escape=False)\nresponse.write(\'\\n        </div>\\n        \\n        \', escape=False)\nif right_sidebar_enabled:\n    response.write(\'\\n        <div class="four columns">\\n          \', escape=False)\n    response.write(\'\\n          <h3>Right Sidebar</h3>\\n          <p></p>\\n          \', escape=False)\n    response.write(\'\\n        </div>    \\n        \', escape=False)\n    pass\nresponse.write(\'\\n        \\n      </div><!-- container -->\\n    </div><!-- main -->\\n    \\n    <div class="push"></div>\\n  </div><!-- wrapper -->\\n\\n  <div class="footer">\\n    <div class="container">    \\n      <div class="sixteen columns">\\n        \', escape=False)\nresponse.write(\' <!-- this is default footer -->\\n        <div class="footer-content clearfix">\\n          <div class="copyright">\', escape=False)\nresponse.write(T(\'Copyright\'))\nresponse.write(\' &#169; 2011</div>\\n          <div style="float: right;">\\n            <a href="http://www.web2py.com/">\\n            <img style="padding-bottom: 0;" src="\', escape=False)\nresponse.write(URL(\'static\',\'images/poweredby.png\'))\nresponse.write(\'"/>\\n            </a>\\n          </div>\\n        </div>\\n        \', escape=False)\nresponse.write(\'\\t\\n      </div>\\n    </div><!-- container -->\\n  </div><!-- footer -->\\n  \\n  <!--[if lt IE 7 ]>\\n\\t<script src="\', escape=False)\nresponse.write(URL(\'static\',\'js/dd_belatedpng.js\'))\nresponse.write(\'"></script>\\n\\t<script> DD_belatedPNG.fix(\\\'img, .png_bg\\\'); //fix any <img> or .png_bg background-images </script>\\n\\t<![endif]-->\\n  \', escape=False)\nif response.google_analytics_id:\n    response.write(\'<script type="text/javascript"> var _gaq = _gaq || []; _gaq.push([\\\'_setAccount\\\', \\\'\', escape=False)\n    response.write(response.google_analytics_id)\n    response.write("\']); _gaq.push([\'_trackPageview\']); (function() { var ga = document.createElement(\'script\'); ga.type = \'text/javascript\'; ga.async = true; ga.src = (\'https:\' == document.location.protocol ? \'https://ssl\' : \'http://www\') + \'.google-analytics.com/ga.js\'; var s = document.getElementsByTagName(\'script\')[0]; s.parentNode.insertBefore(ga, s); })(); </script> ", escape=False)\n    pass\nresponse.write(\'\\n</body>\\n</html>\\n\', escape=False)'
p7
sS'snapshot'
p8
(dp9
S'exception'
p10
(dp11
S'__hash__'
p12
S"<method-wrapper '__hash__' of exceptions.AttributeError object>"
p13
sS'__setattr__'
p14
S"<method-wrapper '__setattr__' of exceptions.AttributeError object>"
p15
sS'__reduce_ex__'
p16
S'<built-in method __reduce_ex__ of exceptions.AttributeError object>'
p17
sS'__getslice__'
p18
S"<method-wrapper '__getslice__' of exceptions.AttributeError object>"
p19
sS'__getitem__'
p20
S"<method-wrapper '__getitem__' of exceptions.AttributeError object>"
p21
sS'__setstate__'
p22
S'<built-in method __setstate__ of exceptions.AttributeError object>'
p23
sS'__reduce__'
p24
S'<built-in method __reduce__ of exceptions.AttributeError object>'
p25
sS'__str__'
p26
S"<method-wrapper '__str__' of exceptions.AttributeError object>"
p27
sS'__format__'
p28
S'<built-in method __format__ of exceptions.AttributeError object>'
p29
sS'__getattribute__'
p30
S"<method-wrapper '__getattribute__' of exceptions.AttributeError object>"
p31
sS'__class__'
p32
S"<type 'exceptions.AttributeError'>"
p33
sS'__unicode__'
p34
S'<built-in method __unicode__ of exceptions.AttributeError object>'
p35
sS'__delattr__'
p36
S"<method-wrapper '__delattr__' of exceptions.AttributeError object>"
p37
sS'__subclasshook__'
p38
S'<built-in method __subclasshook__ of type object>'
p39
sS'__repr__'
p40
S"<method-wrapper '__repr__' of exceptions.AttributeError object>"
p41
sS'args'
p42
S'("\'NoneType\' object has no attribute \'uploaded_by\'",)'
p43
sS'__dict__'
p44
S'{}'
p45
sS'__sizeof__'
p46
S'<built-in method __sizeof__ of exceptions.AttributeError object>'
p47
sS'__doc__'
p48
S"'Attribute not found.'"
p49
sS'__init__'
p50
S"<method-wrapper '__init__' of exceptions.AttributeError object>"
p51
sS'__new__'
p52
S'<built-in method __new__ of type object>'
p53
ssS'evalue'
p54
S"'NoneType' object has no attribute 'uploaded_by'"
p55
sS'request'
p56
ccopy_reg
_reconstructor
p57
(cgluon.html
BEAUTIFY
p58
c__builtin__
object
p59
NtRp60
(dp61
S'attributes'
p62
(dp63
sS'components'
p64
(lp65
g57
(cgluon.html
TABLE
p66
g59
NtRp67
(dp68
g62
(dp69
S'level'
p70
I5
ssS'parent'
p71
Nsg64
(lp72
g57
(cgluon.html
TR
p73
g59
NtRp74
(dp75
g62
(dp76
sg71
g67
sg64
(lp77
g57
(cgluon.html
TD
p78
g59
NtRp79
(dp80
g62
(dp81
S'_style'
p82
S'font-weight:bold;vertical-align:top'
p83
ssg71
g74
sg64
(lp84
S'ajax'
p85
asbag57
(g78
g59
NtRp86
(dp87
g62
(dp88
S'_valign'
p89
S'top'
p90
ssg71
g74
sg64
(lp91
S':'
asbag57
(g78
g59
NtRp92
(dp93
g62
(dp94
sg71
g74
sg64
(lp95
g57
(g58
g59
NtRp96
(dp97
g62
(dp98
g70
I5
ssg71
g92
sg64
(lp99
S'False'
p100
asbasbasbag57
(g73
g59
NtRp101
(dp102
g62
(dp103
sg71
g67
sg64
(lp104
g57
(g78
g59
NtRp105
(dp106
g62
(dp107
g82
g83
ssg71
g101
sg64
(lp108
S'application'
p109
asbag57
(g78
g59
NtRp110
(dp111
g62
(dp112
g89
g90
ssg71
g101
sg64
(lp113
S':'
asbag57
(g78
g59
NtRp114
(dp115
g62
(dp116
sg71
g101
sg64
(lp117
g57
(g58
g59
NtRp118
(dp119
g62
(dp120
g70
I5
ssg71
g114
sg64
(lp121
S'Just_Click_'
p122
asbasbasbag57
(g73
g59
NtRp123
(dp124
g62
(dp125
sg71
g67
sg64
(lp126
g57
(g78
g59
NtRp127
(dp128
g62
(dp129
g82
g83
ssg71
g123
sg64
(lp130
g42
asbag57
(g78
g59
NtRp131
(dp132
g62
(dp133
g89
g90
ssg71
g123
sg64
(lp134
S':'
asbag57
(g78
g59
NtRp135
(dp136
g62
(dp137
sg71
g123
sg64
(lp138
g57
(g58
g59
NtRp139
(dp140
g62
(dp141
g70
I5
ssg71
g135
sg64
(lp142
g57
(g66
g59
NtRp143
(dp144
g62
(dp145
g70
I4
ssg71
Nsg64
(lp146
g57
(g73
g59
NtRp147
(dp148
g62
(dp149
sg71
g143
sg64
(lp150
g57
(g78
g59
NtRp151
(dp152
g62
(dp153
sg71
g147
sg64
(lp154
g57
(g58
g59
NtRp155
(dp156
g62
(dp157
g70
I4
ssg71
g151
sg64
(lp158
S'Admin'
p159
asbasbasbasbasbasbasbag57
(g73
g59
NtRp160
(dp161
g62
(dp162
sg71
g67
sg64
(lp163
g57
(g78
g59
NtRp164
(dp165
g62
(dp166
g82
g83
ssg71
g160
sg64
(lp167
S'body'
p168
asbag57
(g78
g59
NtRp169
(dp170
g62
(dp171
g89
g90
ssg71
g160
sg64
(lp172
S':'
asbag57
(g78
g59
NtRp173
(dp174
g62
(dp175
sg71
g160
sg64
(lp176
g57
(g58
g59
NtRp177
(dp178
g62
(dp179
g70
I5
ssg71
g173
sg64
(lp180
S'<cStringIO.StringO object at 0xaeaad220>'
p181
asbasbasbag57
(g73
g59
NtRp182
(dp183
g62
(dp184
sg71
g67
sg64
(lp185
g57
(g78
g59
NtRp186
(dp187
g62
(dp188
g82
g83
ssg71
g182
sg64
(lp189
S'client'
p190
asbag57
(g78
g59
NtRp191
(dp192
g62
(dp193
g89
g90
ssg71
g182
sg64
(lp194
S':'
asbag57
(g78
g59
NtRp195
(dp196
g62
(dp197
sg71
g182
sg64
(lp198
g57
(g58
g59
NtRp199
(dp200
g62
(dp201
g70
I5
ssg71
g195
sg64
(lp202
S'127.0.0.1'
p203
asbasbasbag57
(g73
g59
NtRp204
(dp205
g62
(dp206
sg71
g67
sg64
(lp207
g57
(g78
g59
NtRp208
(dp209
g62
(dp210
g82
g83
ssg71
g204
sg64
(lp211
S'controller'
p212
asbag57
(g78
g59
NtRp213
(dp214
g62
(dp215
g89
g90
ssg71
g204
sg64
(lp216
S':'
asbag57
(g78
g59
NtRp217
(dp218
g62
(dp219
sg71
g204
sg64
(lp220
g57
(g58
g59
NtRp221
(dp222
g62
(dp223
g70
I5
ssg71
g217
sg64
(lp224
S'default'
p225
asbasbasbag57
(g73
g59
NtRp226
(dp227
g62
(dp228
sg71
g67
sg64
(lp229
g57
(g78
g59
NtRp230
(dp231
g62
(dp232
g82
g83
ssg71
g226
sg64
(lp233
S'cookies'
p234
asbag57
(g78
g59
NtRp235
(dp236
g62
(dp237
g89
g90
ssg71
g226
sg64
(lp238
S':'
asbag57
(g78
g59
NtRp239
(dp240
g62
(dp241
sg71
g226
sg64
(lp242
g57
(g58
g59
NtRp243
(dp244
g62
(dp245
g70
I5
ssg71
g239
sg64
(lp246
g57
(g66
g59
NtRp247
(dp248
g62
(dp249
g70
I4
ssg71
Nsg64
(lp250
g57
(g73
g59
NtRp251
(dp252
g62
(dp253
sg71
g247
sg64
(lp254
g57
(g78
g59
NtRp255
(dp256
g62
(dp257
g82
g83
ssg71
g251
sg64
(lp258
S'session_id_admin'
p259
asbag57
(g78
g59
NtRp260
(dp261
g62
(dp262
g89
g90
ssg71
g251
sg64
(lp263
S':'
asbag57
(g78
g59
NtRp264
(dp265
g62
(dp266
sg71
g251
sg64
(lp267
g57
(g58
g59
NtRp268
(dp269
g62
(dp270
g70
I4
ssg71
g264
sg64
(lp271
g57
(g66
g59
NtRp272
(dp273
g62
(dp274
g70
I3
ssg71
Nsg64
(lp275
g57
(g73
g59
NtRp276
(dp277
g62
(dp278
sg71
g272
sg64
(lp279
g57
(g78
g59
NtRp280
(dp281
g62
(dp282
g82
g83
ssg71
g276
sg64
(lp283
S'comment'
p284
asbag57
(g78
g59
NtRp285
(dp286
g62
(dp287
g89
g90
ssg71
g276
sg64
(lp288
S':'
asbag57
(g78
g59
NtRp289
(dp290
g62
(dp291
sg71
g276
sg64
(lp292
g57
(g58
g59
NtRp293
(dp294
g62
(dp295
g70
I3
ssg71
g289
sg64
(lp296
S''
asbasbasbag57
(g73
g59
NtRp297
(dp298
g62
(dp299
sg71
g272
sg64
(lp300
g57
(g78
g59
NtRp301
(dp302
g62
(dp303
g82
g83
ssg71
g297
sg64
(lp304
S'domain'
p305
asbag57
(g78
g59
NtRp306
(dp307
g62
(dp308
g89
g90
ssg71
g297
sg64
(lp309
S':'
asbag57
(g78
g59
NtRp310
(dp311
g62
(dp312
sg71
g297
sg64
(lp313
g57
(g58
g59
NtRp314
(dp315
g62
(dp316
g70
I3
ssg71
g310
sg64
(lp317
S''
asbasbasbag57
(g73
g59
NtRp318
(dp319
g62
(dp320
sg71
g272
sg64
(lp321
g57
(g78
g59
NtRp322
(dp323
g62
(dp324
g82
g83
ssg71
g318
sg64
(lp325
S'expires'
p326
asbag57
(g78
g59
NtRp327
(dp328
g62
(dp329
g89
g90
ssg71
g318
sg64
(lp330
S':'
asbag57
(g78
g59
NtRp331
(dp332
g62
(dp333
sg71
g318
sg64
(lp334
g57
(g58
g59
NtRp335
(dp336
g62
(dp337
g70
I3
ssg71
g331
sg64
(lp338
S''
asbasbasbag57
(g73
g59
NtRp339
(dp340
g62
(dp341
sg71
g272
sg64
(lp342
g57
(g78
g59
NtRp343
(dp344
g62
(dp345
g82
g83
ssg71
g339
sg64
(lp346
S'httponly'
p347
asbag57
(g78
g59
NtRp348
(dp349
g62
(dp350
g89
g90
ssg71
g339
sg64
(lp351
S':'
asbag57
(g78
g59
NtRp352
(dp353
g62
(dp354
sg71
g339
sg64
(lp355
g57
(g58
g59
NtRp356
(dp357
g62
(dp358
g70
I3
ssg71
g352
sg64
(lp359
S''
asbasbasbag57
(g73
g59
NtRp360
(dp361
g62
(dp362
sg71
g272
sg64
(lp363
g57
(g78
g59
NtRp364
(dp365
g62
(dp366
g82
g83
ssg71
g360
sg64
(lp367
S'max-age'
p368
asbag57
(g78
g59
NtRp369
(dp370
g62
(dp371
g89
g90
ssg71
g360
sg64
(lp372
S':'
asbag57
(g78
g59
NtRp373
(dp374
g62
(dp375
sg71
g360
sg64
(lp376
g57
(g58
g59
NtRp377
(dp378
g62
(dp379
g70
I3
ssg71
g373
sg64
(lp380
S''
asbasbasbag57
(g73
g59
NtRp381
(dp382
g62
(dp383
sg71
g272
sg64
(lp384
g57
(g78
g59
NtRp385
(dp386
g62
(dp387
g82
g83
ssg71
g381
sg64
(lp388
S'path'
p389
asbag57
(g78
g59
NtRp390
(dp391
g62
(dp392
g89
g90
ssg71
g381
sg64
(lp393
S':'
asbag57
(g78
g59
NtRp394
(dp395
g62
(dp396
sg71
g381
sg64
(lp397
g57
(g58
g59
NtRp398
(dp399
g62
(dp400
g70
I3
ssg71
g394
sg64
(lp401
S''
asbasbasbag57
(g73
g59
NtRp402
(dp403
g62
(dp404
sg71
g272
sg64
(lp405
g57
(g78
g59
NtRp406
(dp407
g62
(dp408
g82
g83
ssg71
g402
sg64
(lp409
S'secure'
p410
asbag57
(g78
g59
NtRp411
(dp412
g62
(dp413
g89
g90
ssg71
g402
sg64
(lp414
S':'
asbag57
(g78
g59
NtRp415
(dp416
g62
(dp417
sg71
g402
sg64
(lp418
g57
(g58
g59
NtRp419
(dp420
g62
(dp421
g70
I3
ssg71
g415
sg64
(lp422
S''
asbasbasbag57
(g73
g59
NtRp423
(dp424
g62
(dp425
sg71
g272
sg64
(lp426
g57
(g78
g59
NtRp427
(dp428
g62
(dp429
g82
g83
ssg71
g423
sg64
(lp430
S'version'
p431
asbag57
(g78
g59
NtRp432
(dp433
g62
(dp434
g89
g90
ssg71
g423
sg64
(lp435
S':'
asbag57
(g78
g59
NtRp436
(dp437
g62
(dp438
sg71
g423
sg64
(lp439
g57
(g58
g59
NtRp440
(dp441
g62
(dp442
g70
I3
ssg71
g436
sg64
(lp443
S''
asbasbasbasbasbasbasbag57
(g73
g59
NtRp444
(dp445
g62
(dp446
sg71
g247
sg64
(lp447
g57
(g78
g59
NtRp448
(dp449
g62
(dp450
g82
g83
ssg71
g444
sg64
(lp451
S'session_id_just_click_'
p452
asbag57
(g78
g59
NtRp453
(dp454
g62
(dp455
g89
g90
ssg71
g444
sg64
(lp456
S':'
asbag57
(g78
g59
NtRp457
(dp458
g62
(dp459
sg71
g444
sg64
(lp460
g57
(g58
g59
NtRp461
(dp462
g62
(dp463
g70
I4
ssg71
g457
sg64
(lp464
g57
(g66
g59
NtRp465
(dp466
g62
(dp467
g70
I3
ssg71
Nsg64
(lp468
g57
(g73
g59
NtRp469
(dp470
g62
(dp471
sg71
g465
sg64
(lp472
g57
(g78
g59
NtRp473
(dp474
g62
(dp475
g82
g83
ssg71
g469
sg64
(lp476
g284
asbag57
(g78
g59
NtRp477
(dp478
g62
(dp479
g89
g90
ssg71
g469
sg64
(lp480
S':'
asbag57
(g78
g59
NtRp481
(dp482
g62
(dp483
sg71
g469
sg64
(lp484
g57
(g58
g59
NtRp485
(dp486
g62
(dp487
g70
I3
ssg71
g481
sg64
(lp488
S''
asbasbasbag57
(g73
g59
NtRp489
(dp490
g62
(dp491
sg71
g465
sg64
(lp492
g57
(g78
g59
NtRp493
(dp494
g62
(dp495
g82
g83
ssg71
g489
sg64
(lp496
g305
asbag57
(g78
g59
NtRp497
(dp498
g62
(dp499
g89
g90
ssg71
g489
sg64
(lp500
S':'
asbag57
(g78
g59
NtRp501
(dp502
g62
(dp503
sg71
g489
sg64
(lp504
g57
(g58
g59
NtRp505
(dp506
g62
(dp507
g70
I3
ssg71
g501
sg64
(lp508
S''
asbasbasbag57
(g73
g59
NtRp509
(dp510
g62
(dp511
sg71
g465
sg64
(lp512
g57
(g78
g59
NtRp513
(dp514
g62
(dp515
g82
g83
ssg71
g509
sg64
(lp516
g326
asbag57
(g78
g59
NtRp517
(dp518
g62
(dp519
g89
g90
ssg71
g509
sg64
(lp520
S':'
asbag57
(g78
g59
NtRp521
(dp522
g62
(dp523
sg71
g509
sg64
(lp524
g57
(g58
g59
NtRp525
(dp526
g62
(dp527
g70
I3
ssg71
g521
sg64
(lp528
S''
asbasbasbag57
(g73
g59
NtRp529
(dp530
g62
(dp531
sg71
g465
sg64
(lp532
g57
(g78
g59
NtRp533
(dp534
g62
(dp535
g82
g83
ssg71
g529
sg64
(lp536
g347
asbag57
(g78
g59
NtRp537
(dp538
g62
(dp539
g89
g90
ssg71
g529
sg64
(lp540
S':'
asbag57
(g78
g59
NtRp541
(dp542
g62
(dp543
sg71
g529
sg64
(lp544
g57
(g58
g59
NtRp545
(dp546
g62
(dp547
g70
I3
ssg71
g541
sg64
(lp548
S''
asbasbasbag57
(g73
g59
NtRp549
(dp550
g62
(dp551
sg71
g465
sg64
(lp552
g57
(g78
g59
NtRp553
(dp554
g62
(dp555
g82
g83
ssg71
g549
sg64
(lp556
g368
asbag57
(g78
g59
NtRp557
(dp558
g62
(dp559
g89
g90
ssg71
g549
sg64
(lp560
S':'
asbag57
(g78
g59
NtRp561
(dp562
g62
(dp563
sg71
g549
sg64
(lp564
g57
(g58
g59
NtRp565
(dp566
g62
(dp567
g70
I3
ssg71
g561
sg64
(lp568
S''
asbasbasbag57
(g73
g59
NtRp569
(dp570
g62
(dp571
sg71
g465
sg64
(lp572
g57
(g78
g59
NtRp573
(dp574
g62
(dp575
g82
g83
ssg71
g569
sg64
(lp576
g389
asbag57
(g78
g59
NtRp577
(dp578
g62
(dp579
g89
g90
ssg71
g569
sg64
(lp580
S':'
asbag57
(g78
g59
NtRp581
(dp582
g62
(dp583
sg71
g569
sg64
(lp584
g57
(g58
g59
NtRp585
(dp586
g62
(dp587
g70
I3
ssg71
g581
sg64
(lp588
S''
asbasbasbag57
(g73
g59
NtRp589
(dp590
g62
(dp591
sg71
g465
sg64
(lp592
g57
(g78
g59
NtRp593
(dp594
g62
(dp595
g82
g83
ssg71
g589
sg64
(lp596
g410
asbag57
(g78
g59
NtRp597
(dp598
g62
(dp599
g89
g90
ssg71
g589
sg64
(lp600
S':'
asbag57
(g78
g59
NtRp601
(dp602
g62
(dp603
sg71
g589
sg64
(lp604
g57
(g58
g59
NtRp605
(dp606
g62
(dp607
g70
I3
ssg71
g601
sg64
(lp608
S''
asbasbasbag57
(g73
g59
NtRp609
(dp610
g62
(dp611
sg71
g465
sg64
(lp612
g57
(g78
g59
NtRp613
(dp614
g62
(dp615
g82
g83
ssg71
g609
sg64
(lp616
g431
asbag57
(g78
g59
NtRp617
(dp618
g62
(dp619
g89
g90
ssg71
g609
sg64
(lp620
S':'
asbag57
(g78
g59
NtRp621
(dp622
g62
(dp623
sg71
g609
sg64
(lp624
g57
(g58
g59
NtRp625
(dp626
g62
(dp627
g70
I3
ssg71
g621
sg64
(lp628
S''
asbasbasbasbasbasbasbag57
(g73
g59
NtRp629
(dp630
g62
(dp631
sg71
g247
sg64
(lp632
g57
(g78
g59
NtRp633
(dp634
g62
(dp635
g82
g83
ssg71
g629
sg64
(lp636
S'session_id_my_note_book'
p637
asbag57
(g78
g59
NtRp638
(dp639
g62
(dp640
g89
g90
ssg71
g629
sg64
(lp641
S':'
asbag57
(g78
g59
NtRp642
(dp643
g62
(dp644
sg71
g629
sg64
(lp645
g57
(g58
g59
NtRp646
(dp647
g62
(dp648
g70
I4
ssg71
g642
sg64
(lp649
g57
(g66
g59
NtRp650
(dp651
g62
(dp652
g70
I3
ssg71
Nsg64
(lp653
g57
(g73
g59
NtRp654
(dp655
g62
(dp656
sg71
g650
sg64
(lp657
g57
(g78
g59
NtRp658
(dp659
g62
(dp660
g82
g83
ssg71
g654
sg64
(lp661
g284
asbag57
(g78
g59
NtRp662
(dp663
g62
(dp664
g89
g90
ssg71
g654
sg64
(lp665
S':'
asbag57
(g78
g59
NtRp666
(dp667
g62
(dp668
sg71
g654
sg64
(lp669
g57
(g58
g59
NtRp670
(dp671
g62
(dp672
g70
I3
ssg71
g666
sg64
(lp673
S''
asbasbasbag57
(g73
g59
NtRp674
(dp675
g62
(dp676
sg71
g650
sg64
(lp677
g57
(g78
g59
NtRp678
(dp679
g62
(dp680
g82
g83
ssg71
g674
sg64
(lp681
g305
asbag57
(g78
g59
NtRp682
(dp683
g62
(dp684
g89
g90
ssg71
g674
sg64
(lp685
S':'
asbag57
(g78
g59
NtRp686
(dp687
g62
(dp688
sg71
g674
sg64
(lp689
g57
(g58
g59
NtRp690
(dp691
g62
(dp692
g70
I3
ssg71
g686
sg64
(lp693
S''
asbasbasbag57
(g73
g59
NtRp694
(dp695
g62
(dp696
sg71
g650
sg64
(lp697
g57
(g78
g59
NtRp698
(dp699
g62
(dp700
g82
g83
ssg71
g694
sg64
(lp701
g326
asbag57
(g78
g59
NtRp702
(dp703
g62
(dp704
g89
g90
ssg71
g694
sg64
(lp705
S':'
asbag57
(g78
g59
NtRp706
(dp707
g62
(dp708
sg71
g694
sg64
(lp709
g57
(g58
g59
NtRp710
(dp711
g62
(dp712
g70
I3
ssg71
g706
sg64
(lp713
S''
asbasbasbag57
(g73
g59
NtRp714
(dp715
g62
(dp716
sg71
g650
sg64
(lp717
g57
(g78
g59
NtRp718
(dp719
g62
(dp720
g82
g83
ssg71
g714
sg64
(lp721
g347
asbag57
(g78
g59
NtRp722
(dp723
g62
(dp724
g89
g90
ssg71
g714
sg64
(lp725
S':'
asbag57
(g78
g59
NtRp726
(dp727
g62
(dp728
sg71
g714
sg64
(lp729
g57
(g58
g59
NtRp730
(dp731
g62
(dp732
g70
I3
ssg71
g726
sg64
(lp733
S''
asbasbasbag57
(g73
g59
NtRp734
(dp735
g62
(dp736
sg71
g650
sg64
(lp737
g57
(g78
g59
NtRp738
(dp739
g62
(dp740
g82
g83
ssg71
g734
sg64
(lp741
g368
asbag57
(g78
g59
NtRp742
(dp743
g62
(dp744
g89
g90
ssg71
g734
sg64
(lp745
S':'
asbag57
(g78
g59
NtRp746
(dp747
g62
(dp748
sg71
g734
sg64
(lp749
g57
(g58
g59
NtRp750
(dp751
g62
(dp752
g70
I3
ssg71
g746
sg64
(lp753
S''
asbasbasbag57
(g73
g59
NtRp754
(dp755
g62
(dp756
sg71
g650
sg64
(lp757
g57
(g78
g59
NtRp758
(dp759
g62
(dp760
g82
g83
ssg71
g754
sg64
(lp761
g389
asbag57
(g78
g59
NtRp762
(dp763
g62
(dp764
g89
g90
ssg71
g754
sg64
(lp765
S':'
asbag57
(g78
g59
NtRp766
(dp767
g62
(dp768
sg71
g754
sg64
(lp769
g57
(g58
g59
NtRp770
(dp771
g62
(dp772
g70
I3
ssg71
g766
sg64
(lp773
S''
asbasbasbag57
(g73
g59
NtRp774
(dp775
g62
(dp776
sg71
g650
sg64
(lp777
g57
(g78
g59
NtRp778
(dp779
g62
(dp780
g82
g83
ssg71
g774
sg64
(lp781
g410
asbag57
(g78
g59
NtRp782
(dp783
g62
(dp784
g89
g90
ssg71
g774
sg64
(lp785
S':'
asbag57
(g78
g59
NtRp786
(dp787
g62
(dp788
sg71
g774
sg64
(lp789
g57
(g58
g59
NtRp790
(dp791
g62
(dp792
g70
I3
ssg71
g786
sg64
(lp793
S''
asbasbasbag57
(g73
g59
NtRp794
(dp795
g62
(dp796
sg71
g650
sg64
(lp797
g57
(g78
g59
NtRp798
(dp799
g62
(dp800
g82
g83
ssg71
g794
sg64
(lp801
g431
asbag57
(g78
g59
NtRp802
(dp803
g62
(dp804
g89
g90
ssg71
g794
sg64
(lp805
S':'
asbag57
(g78
g59
NtRp806
(dp807
g62
(dp808
sg71
g794
sg64
(lp809
g57
(g58
g59
NtRp810
(dp811
g62
(dp812
g70
I3
ssg71
g806
sg64
(lp813
S''
asbasbasbasbasbasbasbag57
(g73
g59
NtRp814
(dp815
g62
(dp816
sg71
g247
sg64
(lp817
g57
(g78
g59
NtRp818
(dp819
g62
(dp820
g82
g83
ssg71
g814
sg64
(lp821
S'session_id_users'
p822
asbag57
(g78
g59
NtRp823
(dp824
g62
(dp825
g89
g90
ssg71
g814
sg64
(lp826
S':'
asbag57
(g78
g59
NtRp827
(dp828
g62
(dp829
sg71
g814
sg64
(lp830
g57
(g58
g59
NtRp831
(dp832
g62
(dp833
g70
I4
ssg71
g827
sg64
(lp834
g57
(g66
g59
NtRp835
(dp836
g62
(dp837
g70
I3
ssg71
Nsg64
(lp838
g57
(g73
g59
NtRp839
(dp840
g62
(dp841
sg71
g835
sg64
(lp842
g57
(g78
g59
NtRp843
(dp844
g62
(dp845
g82
g83
ssg71
g839
sg64
(lp846
g284
asbag57
(g78
g59
NtRp847
(dp848
g62
(dp849
g89
g90
ssg71
g839
sg64
(lp850
S':'
asbag57
(g78
g59
NtRp851
(dp852
g62
(dp853
sg71
g839
sg64
(lp854
g57
(g58
g59
NtRp855
(dp856
g62
(dp857
g70
I3
ssg71
g851
sg64
(lp858
S''
asbasbasbag57
(g73
g59
NtRp859
(dp860
g62
(dp861
sg71
g835
sg64
(lp862
g57
(g78
g59
NtRp863
(dp864
g62
(dp865
g82
g83
ssg71
g859
sg64
(lp866
g305
asbag57
(g78
g59
NtRp867
(dp868
g62
(dp869
g89
g90
ssg71
g859
sg64
(lp870
S':'
asbag57
(g78
g59
NtRp871
(dp872
g62
(dp873
sg71
g859
sg64
(lp874
g57
(g58
g59
NtRp875
(dp876
g62
(dp877
g70
I3
ssg71
g871
sg64
(lp878
S''
asbasbasbag57
(g73
g59
NtRp879
(dp880
g62
(dp881
sg71
g835
sg64
(lp882
g57
(g78
g59
NtRp883
(dp884
g62
(dp885
g82
g83
ssg71
g879
sg64
(lp886
g326
asbag57
(g78
g59
NtRp887
(dp888
g62
(dp889
g89
g90
ssg71
g879
sg64
(lp890
S':'
asbag57
(g78
g59
NtRp891
(dp892
g62
(dp893
sg71
g879
sg64
(lp894
g57
(g58
g59
NtRp895
(dp896
g62
(dp897
g70
I3
ssg71
g891
sg64
(lp898
S''
asbasbasbag57
(g73
g59
NtRp899
(dp900
g62
(dp901
sg71
g835
sg64
(lp902
g57
(g78
g59
NtRp903
(dp904
g62
(dp905
g82
g83
ssg71
g899
sg64
(lp906
g347
asbag57
(g78
g59
NtRp907
(dp908
g62
(dp909
g89
g90
ssg71
g899
sg64
(lp910
S':'
asbag57
(g78
g59
NtRp911
(dp912
g62
(dp913
sg71
g899
sg64
(lp914
g57
(g58
g59
NtRp915
(dp916
g62
(dp917
g70
I3
ssg71
g911
sg64
(lp918
S''
asbasbasbag57
(g73
g59
NtRp919
(dp920
g62
(dp921
sg71
g835
sg64
(lp922
g57
(g78
g59
NtRp923
(dp924
g62
(dp925
g82
g83
ssg71
g919
sg64
(lp926
g368
asbag57
(g78
g59
NtRp927
(dp928
g62
(dp929
g89
g90
ssg71
g919
sg64
(lp930
S':'
asbag57
(g78
g59
NtRp931
(dp932
g62
(dp933
sg71
g919
sg64
(lp934
g57
(g58
g59
NtRp935
(dp936
g62
(dp937
g70
I3
ssg71
g931
sg64
(lp938
S''
asbasbasbag57
(g73
g59
NtRp939
(dp940
g62
(dp941
sg71
g835
sg64
(lp942
g57
(g78
g59
NtRp943
(dp944
g62
(dp945
g82
g83
ssg71
g939
sg64
(lp946
g389
asbag57
(g78
g59
NtRp947
(dp948
g62
(dp949
g89
g90
ssg71
g939
sg64
(lp950
S':'
asbag57
(g78
g59
NtRp951
(dp952
g62
(dp953
sg71
g939
sg64
(lp954
g57
(g58
g59
NtRp955
(dp956
g62
(dp957
g70
I3
ssg71
g951
sg64
(lp958
S''
asbasbasbag57
(g73
g59
NtRp959
(dp960
g62
(dp961
sg71
g835
sg64
(lp962
g57
(g78
g59
NtRp963
(dp964
g62
(dp965
g82
g83
ssg71
g959
sg64
(lp966
g410
asbag57
(g78
g59
NtRp967
(dp968
g62
(dp969
g89
g90
ssg71
g959
sg64
(lp970
S':'
asbag57
(g78
g59
NtRp971
(dp972
g62
(dp973
sg71
g959
sg64
(lp974
g57
(g58
g59
NtRp975
(dp976
g62
(dp977
g70
I3
ssg71
g971
sg64
(lp978
S''
asbasbasbag57
(g73
g59
NtRp979
(dp980
g62
(dp981
sg71
g835
sg64
(lp982
g57
(g78
g59
NtRp983
(dp984
g62
(dp985
g82
g83
ssg71
g979
sg64
(lp986
g431
asbag57
(g78
g59
NtRp987
(dp988
g62
(dp989
g89
g90
ssg71
g979
sg64
(lp990
S':'
asbag57
(g78
g59
NtRp991
(dp992
g62
(dp993
sg71
g979
sg64
(lp994
g57
(g58
g59
NtRp995
(dp996
g62
(dp997
g70
I3
ssg71
g991
sg64
(lp998
S''
asbasbasbasbasbasbasbag57
(g73
g59
NtRp999
(dp1000
g62
(dp1001
sg71
g247
sg64
(lp1002
g57
(g78
g59
NtRp1003
(dp1004
g62
(dp1005
g82
g83
ssg71
g999
sg64
(lp1006
S'session_id_welcome'
p1007
asbag57
(g78
g59
NtRp1008
(dp1009
g62
(dp1010
g89
g90
ssg71
g999
sg64
(lp1011
S':'
asbag57
(g78
g59
NtRp1012
(dp1013
g62
(dp1014
sg71
g999
sg64
(lp1015
g57
(g58
g59
NtRp1016
(dp1017
g62
(dp1018
g70
I4
ssg71
g1012
sg64
(lp1019
g57
(g66
g59
NtRp1020
(dp1021
g62
(dp1022
g70
I3
ssg71
Nsg64
(lp1023
g57
(g73
g59
NtRp1024
(dp1025
g62
(dp1026
sg71
g1020
sg64
(lp1027
g57
(g78
g59
NtRp1028
(dp1029
g62
(dp1030
g82
g83
ssg71
g1024
sg64
(lp1031
g284
asbag57
(g78
g59
NtRp1032
(dp1033
g62
(dp1034
g89
g90
ssg71
g1024
sg64
(lp1035
S':'
asbag57
(g78
g59
NtRp1036
(dp1037
g62
(dp1038
sg71
g1024
sg64
(lp1039
g57
(g58
g59
NtRp1040
(dp1041
g62
(dp1042
g70
I3
ssg71
g1036
sg64
(lp1043
S''
asbasbasbag57
(g73
g59
NtRp1044
(dp1045
g62
(dp1046
sg71
g1020
sg64
(lp1047
g57
(g78
g59
NtRp1048
(dp1049
g62
(dp1050
g82
g83
ssg71
g1044
sg64
(lp1051
g305
asbag57
(g78
g59
NtRp1052
(dp1053
g62
(dp1054
g89
g90
ssg71
g1044
sg64
(lp1055
S':'
asbag57
(g78
g59
NtRp1056
(dp1057
g62
(dp1058
sg71
g1044
sg64
(lp1059
g57
(g58
g59
NtRp1060
(dp1061
g62
(dp1062
g70
I3
ssg71
g1056
sg64
(lp1063
S''
asbasbasbag57
(g73
g59
NtRp1064
(dp1065
g62
(dp1066
sg71
g1020
sg64
(lp1067
g57
(g78
g59
NtRp1068
(dp1069
g62
(dp1070
g82
g83
ssg71
g1064
sg64
(lp1071
g326
asbag57
(g78
g59
NtRp1072
(dp1073
g62
(dp1074
g89
g90
ssg71
g1064
sg64
(lp1075
S':'
asbag57
(g78
g59
NtRp1076
(dp1077
g62
(dp1078
sg71
g1064
sg64
(lp1079
g57
(g58
g59
NtRp1080
(dp1081
g62
(dp1082
g70
I3
ssg71
g1076
sg64
(lp1083
S''
asbasbasbag57
(g73
g59
NtRp1084
(dp1085
g62
(dp1086
sg71
g1020
sg64
(lp1087
g57
(g78
g59
NtRp1088
(dp1089
g62
(dp1090
g82
g83
ssg71
g1084
sg64
(lp1091
g347
asbag57
(g78
g59
NtRp1092
(dp1093
g62
(dp1094
g89
g90
ssg71
g1084
sg64
(lp1095
S':'
asbag57
(g78
g59
NtRp1096
(dp1097
g62
(dp1098
sg71
g1084
sg64
(lp1099
g57
(g58
g59
NtRp1100
(dp1101
g62
(dp1102
g70
I3
ssg71
g1096
sg64
(lp1103
S''
asbasbasbag57
(g73
g59
NtRp1104
(dp1105
g62
(dp1106
sg71
g1020
sg64
(lp1107
g57
(g78
g59
NtRp1108
(dp1109
g62
(dp1110
g82
g83
ssg71
g1104
sg64
(lp1111
g368
asbag57
(g78
g59
NtRp1112
(dp1113
g62
(dp1114
g89
g90
ssg71
g1104
sg64
(lp1115
S':'
asbag57
(g78
g59
NtRp1116
(dp1117
g62
(dp1118
sg71
g1104
sg64
(lp1119
g57
(g58
g59
NtRp1120
(dp1121
g62
(dp1122
g70
I3
ssg71
g1116
sg64
(lp1123
S''
asbasbasbag57
(g73
g59
NtRp1124
(dp1125
g62
(dp1126
sg71
g1020
sg64
(lp1127
g57
(g78
g59
NtRp1128
(dp1129
g62
(dp1130
g82
g83
ssg71
g1124
sg64
(lp1131
g389
asbag57
(g78
g59
NtRp1132
(dp1133
g62
(dp1134
g89
g90
ssg71
g1124
sg64
(lp1135
S':'
asbag57
(g78
g59
NtRp1136
(dp1137
g62
(dp1138
sg71
g1124
sg64
(lp1139
g57
(g58
g59
NtRp1140
(dp1141
g62
(dp1142
g70
I3
ssg71
g1136
sg64
(lp1143
S''
asbasbasbag57
(g73
g59
NtRp1144
(dp1145
g62
(dp1146
sg71
g1020
sg64
(lp1147
g57
(g78
g59
NtRp1148
(dp1149
g62
(dp1150
g82
g83
ssg71
g1144
sg64
(lp1151
g410
asbag57
(g78
g59
NtRp1152
(dp1153
g62
(dp1154
g89
g90
ssg71
g1144
sg64
(lp1155
S':'
asbag57
(g78
g59
NtRp1156
(dp1157
g62
(dp1158
sg71
g1144
sg64
(lp1159
g57
(g58
g59
NtRp1160
(dp1161
g62
(dp1162
g70
I3
ssg71
g1156
sg64
(lp1163
S''
asbasbasbag57
(g73
g59
NtRp1164
(dp1165
g62
(dp1166
sg71
g1020
sg64
(lp1167
g57
(g78
g59
NtRp1168
(dp1169
g62
(dp1170
g82
g83
ssg71
g1164
sg64
(lp1171
g431
asbag57
(g78
g59
NtRp1172
(dp1173
g62
(dp1174
g89
g90
ssg71
g1164
sg64
(lp1175
S':'
asbag57
(g78
g59
NtRp1176
(dp1177
g62
(dp1178
sg71
g1164
sg64
(lp1179
g57
(g58
g59
NtRp1180
(dp1181
g62
(dp1182
g70
I3
ssg71
g1176
sg64
(lp1183
S''
asbasbasbasbasbasbasbasbasbasbasbag57
(g73
g59
NtRp1184
(dp1185
g62
(dp1186
sg71
g67
sg64
(lp1187
g57
(g78
g59
NtRp1188
(dp1189
g62
(dp1190
g82
g83
ssg71
g1184
sg64
(lp1191
S'env'
p1192
asbag57
(g78
g59
NtRp1193
(dp1194
g62
(dp1195
g89
g90
ssg71
g1184
sg64
(lp1196
S':'
asbag57
(g78
g59
NtRp1197
(dp1198
g62
(dp1199
sg71
g1184
sg64
(lp1200
g57
(g58
g59
NtRp1201
(dp1202
g62
(dp1203
g70
I5
ssg71
g1197
sg64
(lp1204
g57
(g66
g59
NtRp1205
(dp1206
g62
(dp1207
g70
I4
ssg71
Nsg64
(lp1208
g57
(g73
g59
NtRp1209
(dp1210
g62
(dp1211
sg71
g1205
sg64
(lp1212
g57
(g78
g59
NtRp1213
(dp1214
g62
(dp1215
g82
g83
ssg71
g1209
sg64
(lp1216
S'app_folders'
p1217
asbag57
(g78
g59
NtRp1218
(dp1219
g62
(dp1220
g89
g90
ssg71
g1209
sg64
(lp1221
S':'
asbag57
(g78
g59
NtRp1222
(dp1223
g62
(dp1224
sg71
g1209
sg64
(lp1225
g57
(g58
g59
NtRp1226
(dp1227
g62
(dp1228
g70
I4
ssg71
g1222
sg64
(lp1229
S"set(['/home/manikanta/Study/web2py/applications/My_Note_Book/', '/home/manikanta/Study/web2py/applications/Just_Click_/', '/home/manikanta/Study/web2py/applications/admin/', '/home/manikanta/Study/web2py/applications/welcome/'])"
p1230
asbasbasbag57
(g73
g59
NtRp1231
(dp1232
g62
(dp1233
sg71
g1205
sg64
(lp1234
g57
(g78
g59
NtRp1235
(dp1236
g62
(dp1237
g82
g83
ssg71
g1231
sg64
(lp1238
S'applications_parent'
p1239
asbag57
(g78
g59
NtRp1240
(dp1241
g62
(dp1242
g89
g90
ssg71
g1231
sg64
(lp1243
S':'
asbag57
(g78
g59
NtRp1244
(dp1245
g62
(dp1246
sg71
g1231
sg64
(lp1247
g57
(g58
g59
NtRp1248
(dp1249
g62
(dp1250
g70
I4
ssg71
g1244
sg64
(lp1251
S'/home/manikanta/Study/web2py'
p1252
asbasbasbag57
(g73
g59
NtRp1253
(dp1254
g62
(dp1255
sg71
g1205
sg64
(lp1256
g57
(g78
g59
NtRp1257
(dp1258
g62
(dp1259
g82
g83
ssg71
g1253
sg64
(lp1260
S'cmd_args'
p1261
asbag57
(g78
g59
NtRp1262
(dp1263
g62
(dp1264
g89
g90
ssg71
g1253
sg64
(lp1265
S':'
asbag57
(g78
g59
NtRp1266
(dp1267
g62
(dp1268
sg71
g1253
sg64
(lp1269
g57
(g58
g59
NtRp1270
(dp1271
g62
(dp1272
g70
I4
ssg71
g1266
sg64
(lp1273
g57
(g66
g59
NtRp1274
(dp1275
g62
(dp1276
g70
I3
ssg71
Nsg64
(lp1277
sbasbasbasbag57
(g73
g59
NtRp1278
(dp1279
g62
(dp1280
sg71
g1205
sg64
(lp1281
g57
(g78
g59
NtRp1282
(dp1283
g62
(dp1284
g82
g83
ssg71
g1278
sg64
(lp1285
S'cmd_options'
p1286
asbag57
(g78
g59
NtRp1287
(dp1288
g62
(dp1289
g89
g90
ssg71
g1278
sg64
(lp1290
S':'
asbag57
(g78
g59
NtRp1291
(dp1292
g62
(dp1293
sg71
g1278
sg64
(lp1294
g57
(g58
g59
NtRp1295
(dp1296
g62
(dp1297
g70
I4
ssg71
g1291
sg64
(lp1298
S"<Values at 0x91bb7cc: {'verbose': False, 'ip': '127.0.0.1', 'shutdown_timeout': 5, 'taskbar': False, 'nocron': False, 'pid_filename': 'httpserver.pid', 'maxthreads': None, 'softcron': False, 'server_name': 'Manikanta', 'bpython': False, 'nogui': False, 'port': 8000, 'extcron': False, 'debuglevel': 30, 'test': None, 'folder': '/home/manikanta/Study/web2py', 'config': '', 'import_models': False, 'winservice': '', 'shell': None, 'run': '', 'log_filename': 'httpserver.log', 'args': [''], 'socket_timeout': 5, 'ssl_ca_certificate': None, 'scheduler': None, 'profiler_filename': None, 'ssl_private_key': '', 'password': '12345', 'request_queue_size': 5, 'ssl_certificate': '', 'cronjob': False, 'numthreads': None, 'quiet': False, 'interfaces': None, 'minthreads': None, 'timeout': 10, 'plain': False, 'nobanner': False}>"
p1299
asbasbasbag57
(g73
g59
NtRp1300
(dp1301
g62
(dp1302
sg71
g1205
sg64
(lp1303
g57
(g78
g59
NtRp1304
(dp1305
g62
(dp1306
g82
g83
ssg71
g1300
sg64
(lp1307
S'db_sessions'
p1308
asbag57
(g78
g59
NtRp1309
(dp1310
g62
(dp1311
g89
g90
ssg71
g1300
sg64
(lp1312
S':'
asbag57
(g78
g59
NtRp1313
(dp1314
g62
(dp1315
sg71
g1300
sg64
(lp1316
g57
(g58
g59
NtRp1317
(dp1318
g62
(dp1319
g70
I4
ssg71
g1313
sg64
(lp1320
S'set([])'
p1321
asbasbasbag57
(g73
g59
NtRp1322
(dp1323
g62
(dp1324
sg71
g1205
sg64
(lp1325
g57
(g78
g59
NtRp1326
(dp1327
g62
(dp1328
g82
g83
ssg71
g1322
sg64
(lp1329
S'debugging'
p1330
asbag57
(g78
g59
NtRp1331
(dp1332
g62
(dp1333
g89
g90
ssg71
g1322
sg64
(lp1334
S':'
asbag57
(g78
g59
NtRp1335
(dp1336
g62
(dp1337
sg71
g1322
sg64
(lp1338
g57
(g58
g59
NtRp1339
(dp1340
g62
(dp1341
g70
I4
ssg71
g1335
sg64
(lp1342
g100
asbasbasbag57
(g73
g59
NtRp1343
(dp1344
g62
(dp1345
sg71
g1205
sg64
(lp1346
g57
(g78
g59
NtRp1347
(dp1348
g62
(dp1349
g82
g83
ssg71
g1343
sg64
(lp1350
S'gluon_parent'
p1351
asbag57
(g78
g59
NtRp1352
(dp1353
g62
(dp1354
g89
g90
ssg71
g1343
sg64
(lp1355
S':'
asbag57
(g78
g59
NtRp1356
(dp1357
g62
(dp1358
sg71
g1343
sg64
(lp1359
g57
(g58
g59
NtRp1360
(dp1361
g62
(dp1362
g70
I4
ssg71
g1356
sg64
(lp1363
S'/home/manikanta/Study/web2py'
p1364
asbasbasbag57
(g73
g59
NtRp1365
(dp1366
g62
(dp1367
sg71
g1205
sg64
(lp1368
g57
(g78
g59
NtRp1369
(dp1370
g62
(dp1371
g82
g83
ssg71
g1365
sg64
(lp1372
S'http_accept'
p1373
asbag57
(g78
g59
NtRp1374
(dp1375
g62
(dp1376
g89
g90
ssg71
g1365
sg64
(lp1377
S':'
asbag57
(g78
g59
NtRp1378
(dp1379
g62
(dp1380
sg71
g1365
sg64
(lp1381
g57
(g58
g59
NtRp1382
(dp1383
g62
(dp1384
g70
I4
ssg71
g1378
sg64
(lp1385
S'text/html,application/xhtml+xml,application/xml;q=0.9,*/*;q=0.8'
p1386
asbasbasbag57
(g73
g59
NtRp1387
(dp1388
g62
(dp1389
sg71
g1205
sg64
(lp1390
g57
(g78
g59
NtRp1391
(dp1392
g62
(dp1393
g82
g83
ssg71
g1387
sg64
(lp1394
S'http_accept_charset'
p1395
asbag57
(g78
g59
NtRp1396
(dp1397
g62
(dp1398
g89
g90
ssg71
g1387
sg64
(lp1399
S':'
asbag57
(g78
g59
NtRp1400
(dp1401
g62
(dp1402
sg71
g1387
sg64
(lp1403
g57
(g58
g59
NtRp1404
(dp1405
g62
(dp1406
g70
I4
ssg71
g1400
sg64
(lp1407
S'ISO-8859-1,utf-8;q=0.7,*;q=0.3'
p1408
asbasbasbag57
(g73
g59
NtRp1409
(dp1410
g62
(dp1411
sg71
g1205
sg64
(lp1412
g57
(g78
g59
NtRp1413
(dp1414
g62
(dp1415
g82
g83
ssg71
g1409
sg64
(lp1416
S'http_accept_encoding'
p1417
asbag57
(g78
g59
NtRp1418
(dp1419
g62
(dp1420
g89
g90
ssg71
g1409
sg64
(lp1421
S':'
asbag57
(g78
g59
NtRp1422
(dp1423
g62
(dp1424
sg71
g1409
sg64
(lp1425
g57
(g58
g59
NtRp1426
(dp1427
g62
(dp1428
g70
I4
ssg71
g1422
sg64
(lp1429
S'gzip,deflate,sdch'
p1430
asbasbasbag57
(g73
g59
NtRp1431
(dp1432
g62
(dp1433
sg71
g1205
sg64
(lp1434
g57
(g78
g59
NtRp1435
(dp1436
g62
(dp1437
g82
g83
ssg71
g1431
sg64
(lp1438
S'http_accept_language'
p1439
asbag57
(g78
g59
NtRp1440
(dp1441
g62
(dp1442
g89
g90
ssg71
g1431
sg64
(lp1443
S':'
asbag57
(g78
g59
NtRp1444
(dp1445
g62
(dp1446
sg71
g1431
sg64
(lp1447
g57
(g58
g59
NtRp1448
(dp1449
g62
(dp1450
g70
I4
ssg71
g1444
sg64
(lp1451
S'en-US,en;q=0.8'
p1452
asbasbasbag57
(g73
g59
NtRp1453
(dp1454
g62
(dp1455
sg71
g1205
sg64
(lp1456
g57
(g78
g59
NtRp1457
(dp1458
g62
(dp1459
g82
g83
ssg71
g1453
sg64
(lp1460
S'http_connection'
p1461
asbag57
(g78
g59
NtRp1462
(dp1463
g62
(dp1464
g89
g90
ssg71
g1453
sg64
(lp1465
S':'
asbag57
(g78
g59
NtRp1466
(dp1467
g62
(dp1468
sg71
g1453
sg64
(lp1469
g57
(g58
g59
NtRp1470
(dp1471
g62
(dp1472
g70
I4
ssg71
g1466
sg64
(lp1473
S'keep-alive'
p1474
asbasbasbag57
(g73
g59
NtRp1475
(dp1476
g62
(dp1477
sg71
g1205
sg64
(lp1478
g57
(g78
g59
NtRp1479
(dp1480
g62
(dp1481
g82
g83
ssg71
g1475
sg64
(lp1482
S'http_cookie'
p1483
asbag57
(g78
g59
NtRp1484
(dp1485
g62
(dp1486
g89
g90
ssg71
g1475
sg64
(lp1487
S':'
asbag57
(g78
g59
NtRp1488
(dp1489
g62
(dp1490
sg71
g1475
sg64
(lp1491
g57
(g58
g59
NtRp1492
(dp1493
g62
(dp1494
g70
I4
ssg71
g1488
sg64
(lp1495
S'session_id_users=127.0.0.1-9cddfcda-07e7-4aaf-9a4d-1b675b24a7e8; session_id_welcome=127.0.0.1-6eafa04d-3319-4bb2-af21-ba80cb20ed38; session_id_my_note_book=127.0.0.1-d18670cd-567d-4415-bc6f-daf09ed20290; session_id_admin=127.0.0.1-a5e6c132-4dea-4e16-83f4-7c87a1b988d4; session_id_just_click_=127.0.0.1-03949bd9-4000-4d26-9ac1-c5dfe5f7bdd0'
p1496
asbasbasbag57
(g73
g59
NtRp1497
(dp1498
g62
(dp1499
sg71
g1205
sg64
(lp1500
g57
(g78
g59
NtRp1501
(dp1502
g62
(dp1503
g82
g83
ssg71
g1497
sg64
(lp1504
S'http_host'
p1505
asbag57
(g78
g59
NtRp1506
(dp1507
g62
(dp1508
g89
g90
ssg71
g1497
sg64
(lp1509
S':'
asbag57
(g78
g59
NtRp1510
(dp1511
g62
(dp1512
sg71
g1497
sg64
(lp1513
g57
(g58
g59
NtRp1514
(dp1515
g62
(dp1516
g70
I4
ssg71
g1510
sg64
(lp1517
S'127.0.0.1:8000'
p1518
asbasbasbag57
(g73
g59
NtRp1519
(dp1520
g62
(dp1521
sg71
g1205
sg64
(lp1522
g57
(g78
g59
NtRp1523
(dp1524
g62
(dp1525
g82
g83
ssg71
g1519
sg64
(lp1526
S'http_referer'
p1527
asbag57
(g78
g59
NtRp1528
(dp1529
g62
(dp1530
g89
g90
ssg71
g1519
sg64
(lp1531
S':'
asbag57
(g78
g59
NtRp1532
(dp1533
g62
(dp1534
sg71
g1519
sg64
(lp1535
g57
(g58
g59
NtRp1536
(dp1537
g62
(dp1538
g70
I4
ssg71
g1532
sg64
(lp1539
S'http://127.0.0.1:8000/Just_Click_/default/showimagecomments/3'
p1540
asbasbasbag57
(g73
g59
NtRp1541
(dp1542
g62
(dp1543
sg71
g1205
sg64
(lp1544
g57
(g78
g59
NtRp1545
(dp1546
g62
(dp1547
g82
g83
ssg71
g1541
sg64
(lp1548
S'http_user_agent'
p1549
asbag57
(g78
g59
NtRp1550
(dp1551
g62
(dp1552
g89
g90
ssg71
g1541
sg64
(lp1553
S':'
asbag57
(g78
g59
NtRp1554
(dp1555
g62
(dp1556
sg71
g1541
sg64
(lp1557
g57
(g58
g59
NtRp1558
(dp1559
g62
(dp1560
g70
I4
ssg71
g1554
sg64
(lp1561
S'Mozilla/5.0 (X11; Linux i686) AppleWebKit/537.1 (KHTML, like Gecko) Chrome/21.0.1180.89 Safari/537.1'
p1562
asbasbasbag57
(g73
g59
NtRp1563
(dp1564
g62
(dp1565
sg71
g1205
sg64
(lp1566
g57
(g78
g59
NtRp1567
(dp1568
g62
(dp1569
g82
g83
ssg71
g1563
sg64
(lp1570
S'is_jython'
p1571
asbag57
(g78
g59
NtRp1572
(dp1573
g62
(dp1574
g89
g90
ssg71
g1563
sg64
(lp1575
S':'
asbag57
(g78
g59
NtRp1576
(dp1577
g62
(dp1578
sg71
g1563
sg64
(lp1579
g57
(g58
g59
NtRp1580
(dp1581
g62
(dp1582
g70
I4
ssg71
g1576
sg64
(lp1583
g100
asbasbasbag57
(g73
g59
NtRp1584
(dp1585
g62
(dp1586
sg71
g1205
sg64
(lp1587
g57
(g78
g59
NtRp1588
(dp1589
g62
(dp1590
g82
g83
ssg71
g1584
sg64
(lp1591
S'is_pypy'
p1592
asbag57
(g78
g59
NtRp1593
(dp1594
g62
(dp1595
g89
g90
ssg71
g1584
sg64
(lp1596
S':'
asbag57
(g78
g59
NtRp1597
(dp1598
g62
(dp1599
sg71
g1584
sg64
(lp1600
g57
(g58
g59
NtRp1601
(dp1602
g62
(dp1603
g70
I4
ssg71
g1597
sg64
(lp1604
g100
asbasbasbag57
(g73
g59
NtRp1605
(dp1606
g62
(dp1607
sg71
g1205
sg64
(lp1608
g57
(g78
g59
NtRp1609
(dp1610
g62
(dp1611
g82
g83
ssg71
g1605
sg64
(lp1612
S'path_info'
p1613
asbag57
(g78
g59
NtRp1614
(dp1615
g62
(dp1616
g89
g90
ssg71
g1605
sg64
(lp1617
S':'
asbag57
(g78
g59
NtRp1618
(dp1619
g62
(dp1620
sg71
g1605
sg64
(lp1621
g57
(g58
g59
NtRp1622
(dp1623
g62
(dp1624
g70
I4
ssg71
g1618
sg64
(lp1625
S'/Just_Click_/default/show/Admin'
p1626
asbasbasbag57
(g73
g59
NtRp1627
(dp1628
g62
(dp1629
sg71
g1205
sg64
(lp1630
g57
(g78
g59
NtRp1631
(dp1632
g62
(dp1633
g82
g83
ssg71
g1627
sg64
(lp1634
S'query_string'
p1635
asbag57
(g78
g59
NtRp1636
(dp1637
g62
(dp1638
g89
g90
ssg71
g1627
sg64
(lp1639
S':'
asbag57
(g78
g59
NtRp1640
(dp1641
g62
(dp1642
sg71
g1627
sg64
(lp1643
g57
(g58
g59
NtRp1644
(dp1645
g62
(dp1646
g70
I4
ssg71
g1640
sg64
(lp1647
S''
asbasbasbag57
(g73
g59
NtRp1648
(dp1649
g62
(dp1650
sg71
g1205
sg64
(lp1651
g57
(g78
g59
NtRp1652
(dp1653
g62
(dp1654
g82
g83
ssg71
g1648
sg64
(lp1655
S'remote_addr'
p1656
asbag57
(g78
g59
NtRp1657
(dp1658
g62
(dp1659
g89
g90
ssg71
g1648
sg64
(lp1660
S':'
asbag57
(g78
g59
NtRp1661
(dp1662
g62
(dp1663
sg71
g1648
sg64
(lp1664
g57
(g58
g59
NtRp1665
(dp1666
g62
(dp1667
g70
I4
ssg71
g1661
sg64
(lp1668
g203
asbasbasbag57
(g73
g59
NtRp1669
(dp1670
g62
(dp1671
sg71
g1205
sg64
(lp1672
g57
(g78
g59
NtRp1673
(dp1674
g62
(dp1675
g82
g83
ssg71
g1669
sg64
(lp1676
S'remote_port'
p1677
asbag57
(g78
g59
NtRp1678
(dp1679
g62
(dp1680
g89
g90
ssg71
g1669
sg64
(lp1681
S':'
asbag57
(g78
g59
NtRp1682
(dp1683
g62
(dp1684
sg71
g1669
sg64
(lp1685
g57
(g58
g59
NtRp1686
(dp1687
g62
(dp1688
g70
I4
ssg71
g1682
sg64
(lp1689
S'60003'
p1690
asbasbasbag57
(g73
g59
NtRp1691
(dp1692
g62
(dp1693
sg71
g1205
sg64
(lp1694
g57
(g78
g59
NtRp1695
(dp1696
g62
(dp1697
g82
g83
ssg71
g1691
sg64
(lp1698
S'request_method'
p1699
asbag57
(g78
g59
NtRp1700
(dp1701
g62
(dp1702
g89
g90
ssg71
g1691
sg64
(lp1703
S':'
asbag57
(g78
g59
NtRp1704
(dp1705
g62
(dp1706
sg71
g1691
sg64
(lp1707
g57
(g58
g59
NtRp1708
(dp1709
g62
(dp1710
g70
I4
ssg71
g1704
sg64
(lp1711
S'GET'
p1712
asbasbasbag57
(g73
g59
NtRp1713
(dp1714
g62
(dp1715
sg71
g1205
sg64
(lp1716
g57
(g78
g59
NtRp1717
(dp1718
g62
(dp1719
g82
g83
ssg71
g1713
sg64
(lp1720
S'script_name'
p1721
asbag57
(g78
g59
NtRp1722
(dp1723
g62
(dp1724
g89
g90
ssg71
g1713
sg64
(lp1725
S':'
asbag57
(g78
g59
NtRp1726
(dp1727
g62
(dp1728
sg71
g1713
sg64
(lp1729
g57
(g58
g59
NtRp1730
(dp1731
g62
(dp1732
g70
I4
ssg71
g1726
sg64
(lp1733
S''
asbasbasbag57
(g73
g59
NtRp1734
(dp1735
g62
(dp1736
sg71
g1205
sg64
(lp1737
g57
(g78
g59
NtRp1738
(dp1739
g62
(dp1740
g82
g83
ssg71
g1734
sg64
(lp1741
S'server_name'
p1742
asbag57
(g78
g59
NtRp1743
(dp1744
g62
(dp1745
g89
g90
ssg71
g1734
sg64
(lp1746
S':'
asbag57
(g78
g59
NtRp1747
(dp1748
g62
(dp1749
sg71
g1734
sg64
(lp1750
g57
(g58
g59
NtRp1751
(dp1752
g62
(dp1753
g70
I4
ssg71
g1747
sg64
(lp1754
S'Manikanta'
p1755
asbasbasbag57
(g73
g59
NtRp1756
(dp1757
g62
(dp1758
sg71
g1205
sg64
(lp1759
g57
(g78
g59
NtRp1760
(dp1761
g62
(dp1762
g82
g83
ssg71
g1756
sg64
(lp1763
S'server_port'
p1764
asbag57
(g78
g59
NtRp1765
(dp1766
g62
(dp1767
g89
g90
ssg71
g1756
sg64
(lp1768
S':'
asbag57
(g78
g59
NtRp1769
(dp1770
g62
(dp1771
sg71
g1756
sg64
(lp1772
g57
(g58
g59
NtRp1773
(dp1774
g62
(dp1775
g70
I4
ssg71
g1769
sg64
(lp1776
S'8000'
p1777
asbasbasbag57
(g73
g59
NtRp1778
(dp1779
g62
(dp1780
sg71
g1205
sg64
(lp1781
g57
(g78
g59
NtRp1782
(dp1783
g62
(dp1784
g82
g83
ssg71
g1778
sg64
(lp1785
S'server_protocol'
p1786
asbag57
(g78
g59
NtRp1787
(dp1788
g62
(dp1789
g89
g90
ssg71
g1778
sg64
(lp1790
S':'
asbag57
(g78
g59
NtRp1791
(dp1792
g62
(dp1793
sg71
g1778
sg64
(lp1794
g57
(g58
g59
NtRp1795
(dp1796
g62
(dp1797
g70
I4
ssg71
g1791
sg64
(lp1798
S'HTTP/1.1'
p1799
asbasbasbag57
(g73
g59
NtRp1800
(dp1801
g62
(dp1802
sg71
g1205
sg64
(lp1803
g57
(g78
g59
NtRp1804
(dp1805
g62
(dp1806
g82
g83
ssg71
g1800
sg64
(lp1807
S'server_software'
p1808
asbag57
(g78
g59
NtRp1809
(dp1810
g62
(dp1811
g89
g90
ssg71
g1800
sg64
(lp1812
S':'
asbag57
(g78
g59
NtRp1813
(dp1814
g62
(dp1815
sg71
g1800
sg64
(lp1816
g57
(g58
g59
NtRp1817
(dp1818
g62
(dp1819
g70
I4
ssg71
g1813
sg64
(lp1820
S'Rocket 1.2.4'
p1821
asbasbasbag57
(g73
g59
NtRp1822
(dp1823
g62
(dp1824
sg71
g1205
sg64
(lp1825
g57
(g78
g59
NtRp1826
(dp1827
g62
(dp1828
g82
g83
ssg71
g1822
sg64
(lp1829
S'web2py_crontype'
p1830
asbag57
(g78
g59
NtRp1831
(dp1832
g62
(dp1833
g89
g90
ssg71
g1822
sg64
(lp1834
S':'
asbag57
(g78
g59
NtRp1835
(dp1836
g62
(dp1837
sg71
g1822
sg64
(lp1838
g57
(g58
g59
NtRp1839
(dp1840
g62
(dp1841
g70
I4
ssg71
g1835
sg64
(lp1842
S'hard'
p1843
asbasbasbag57
(g73
g59
NtRp1844
(dp1845
g62
(dp1846
sg71
g1205
sg64
(lp1847
g57
(g78
g59
NtRp1848
(dp1849
g62
(dp1850
g82
g83
ssg71
g1844
sg64
(lp1851
S'web2py_path'
p1852
asbag57
(g78
g59
NtRp1853
(dp1854
g62
(dp1855
g89
g90
ssg71
g1844
sg64
(lp1856
S':'
asbag57
(g78
g59
NtRp1857
(dp1858
g62
(dp1859
sg71
g1844
sg64
(lp1860
g57
(g58
g59
NtRp1861
(dp1862
g62
(dp1863
g70
I4
ssg71
g1857
sg64
(lp1864
g1252
asbasbasbag57
(g73
g59
NtRp1865
(dp1866
g62
(dp1867
sg71
g1205
sg64
(lp1868
g57
(g78
g59
NtRp1869
(dp1870
g62
(dp1871
g82
g83
ssg71
g1865
sg64
(lp1872
S'web2py_version'
p1873
asbag57
(g78
g59
NtRp1874
(dp1875
g62
(dp1876
g89
g90
ssg71
g1865
sg64
(lp1877
S':'
asbag57
(g78
g59
NtRp1878
(dp1879
g62
(dp1880
sg71
g1865
sg64
(lp1881
g57
(g58
g59
NtRp1882
(dp1883
g62
(dp1884
g70
I4
ssg71
g1878
sg64
(lp1885
g57
(g66
g59
NtRp1886
(dp1887
g62
(dp1888
g70
I3
ssg71
Nsg64
(lp1889
g57
(g73
g59
NtRp1890
(dp1891
g62
(dp1892
sg71
g1886
sg64
(lp1893
g57
(g78
g59
NtRp1894
(dp1895
g62
(dp1896
sg71
g1890
sg64
(lp1897
g57
(g58
g59
NtRp1898
(dp1899
g62
(dp1900
g70
I3
ssg71
g1894
sg64
(lp1901
S'1'
asbasbasbag57
(g73
g59
NtRp1902
(dp1903
g62
(dp1904
sg71
g1886
sg64
(lp1905
g57
(g78
g59
NtRp1906
(dp1907
g62
(dp1908
sg71
g1902
sg64
(lp1909
g57
(g58
g59
NtRp1910
(dp1911
g62
(dp1912
g70
I3
ssg71
g1906
sg64
(lp1913
S'99'
p1914
asbasbasbag57
(g73
g59
NtRp1915
(dp1916
g62
(dp1917
sg71
g1886
sg64
(lp1918
g57
(g78
g59
NtRp1919
(dp1920
g62
(dp1921
sg71
g1915
sg64
(lp1922
g57
(g58
g59
NtRp1923
(dp1924
g62
(dp1925
g70
I3
ssg71
g1919
sg64
(lp1926
S'7'
asbasbasbag57
(g73
g59
NtRp1927
(dp1928
g62
(dp1929
sg71
g1886
sg64
(lp1930
g57
(g78
g59
NtRp1931
(dp1932
g62
(dp1933
sg71
g1927
sg64
(lp1934
g57
(g58
g59
NtRp1935
(dp1936
g62
(dp1937
g70
I3
ssg71
g1931
sg64
(lp1938
S'datetime.datetime(2012, 3, 4, 22, 12, 8)'
p1939
asbasbasbag57
(g73
g59
NtRp1940
(dp1941
g62
(dp1942
sg71
g1886
sg64
(lp1943
g57
(g78
g59
NtRp1944
(dp1945
g62
(dp1946
sg71
g1940
sg64
(lp1947
g57
(g58
g59
NtRp1948
(dp1949
g62
(dp1950
g70
I3
ssg71
g1944
sg64
(lp1951
S'stable'
p1952
asbasbasbasbasbasbasbag57
(g73
g59
NtRp1953
(dp1954
g62
(dp1955
sg71
g1205
sg64
(lp1956
g57
(g78
g59
NtRp1957
(dp1958
g62
(dp1959
g82
g83
ssg71
g1953
sg64
(lp1960
S'wsgi_errors'
p1961
asbag57
(g78
g59
NtRp1962
(dp1963
g62
(dp1964
g89
g90
ssg71
g1953
sg64
(lp1965
S':'
asbag57
(g78
g59
NtRp1966
(dp1967
g62
(dp1968
sg71
g1953
sg64
(lp1969
g57
(g58
g59
NtRp1970
(dp1971
g62
(dp1972
g70
I4
ssg71
g1966
sg64
(lp1973
S"<open file '<stderr>', mode 'w' at 0xb728a0d0>"
p1974
asbasbasbag57
(g73
g59
NtRp1975
(dp1976
g62
(dp1977
sg71
g1205
sg64
(lp1978
g57
(g78
g59
NtRp1979
(dp1980
g62
(dp1981
g82
g83
ssg71
g1975
sg64
(lp1982
S'wsgi_file_wrapper'
p1983
asbag57
(g78
g59
NtRp1984
(dp1985
g62
(dp1986
g89
g90
ssg71
g1975
sg64
(lp1987
S':'
asbag57
(g78
g59
NtRp1988
(dp1989
g62
(dp1990
sg71
g1975
sg64
(lp1991
g57
(g58
g59
NtRp1992
(dp1993
g62
(dp1994
g70
I4
ssg71
g1988
sg64
(lp1995
S'<class wsgiref.util.FileWrapper at 0x918ce9c>'
p1996
asbasbasbag57
(g73
g59
NtRp1997
(dp1998
g62
(dp1999
sg71
g1205
sg64
(lp2000
g57
(g78
g59
NtRp2001
(dp2002
g62
(dp2003
g82
g83
ssg71
g1997
sg64
(lp2004
S'wsgi_input'
p2005
asbag57
(g78
g59
NtRp2006
(dp2007
g62
(dp2008
g89
g90
ssg71
g1997
sg64
(lp2009
S':'
asbag57
(g78
g59
NtRp2010
(dp2011
g62
(dp2012
sg71
g1997
sg64
(lp2013
g57
(g58
g59
NtRp2014
(dp2015
g62
(dp2016
g70
I4
ssg71
g2010
sg64
(lp2017
S'<socket._fileobject object at 0xaee45a6c>'
p2018
asbasbasbag57
(g73
g59
NtRp2019
(dp2020
g62
(dp2021
sg71
g1205
sg64
(lp2022
g57
(g78
g59
NtRp2023
(dp2024
g62
(dp2025
g82
g83
ssg71
g2019
sg64
(lp2026
S'wsgi_multiprocess'
p2027
asbag57
(g78
g59
NtRp2028
(dp2029
g62
(dp2030
g89
g90
ssg71
g2019
sg64
(lp2031
S':'
asbag57
(g78
g59
NtRp2032
(dp2033
g62
(dp2034
sg71
g2019
sg64
(lp2035
g57
(g58
g59
NtRp2036
(dp2037
g62
(dp2038
g70
I4
ssg71
g2032
sg64
(lp2039
g100
asbasbasbag57
(g73
g59
NtRp2040
(dp2041
g62
(dp2042
sg71
g1205
sg64
(lp2043
g57
(g78
g59
NtRp2044
(dp2045
g62
(dp2046
g82
g83
ssg71
g2040
sg64
(lp2047
S'wsgi_multithread'
p2048
asbag57
(g78
g59
NtRp2049
(dp2050
g62
(dp2051
g89
g90
ssg71
g2040
sg64
(lp2052
S':'
asbag57
(g78
g59
NtRp2053
(dp2054
g62
(dp2055
sg71
g2040
sg64
(lp2056
g57
(g58
g59
NtRp2057
(dp2058
g62
(dp2059
g70
I4
ssg71
g2053
sg64
(lp2060
S'True'
p2061
asbasbasbag57
(g73
g59
NtRp2062
(dp2063
g62
(dp2064
sg71
g1205
sg64
(lp2065
g57
(g78
g59
NtRp2066
(dp2067
g62
(dp2068
g82
g83
ssg71
g2062
sg64
(lp2069
S'wsgi_run_once'
p2070
asbag57
(g78
g59
NtRp2071
(dp2072
g62
(dp2073
g89
g90
ssg71
g2062
sg64
(lp2074
S':'
asbag57
(g78
g59
NtRp2075
(dp2076
g62
(dp2077
sg71
g2062
sg64
(lp2078
g57
(g58
g59
NtRp2079
(dp2080
g62
(dp2081
g70
I4
ssg71
g2075
sg64
(lp2082
g100
asbasbasbag57
(g73
g59
NtRp2083
(dp2084
g62
(dp2085
sg71
g1205
sg64
(lp2086
g57
(g78
g59
NtRp2087
(dp2088
g62
(dp2089
g82
g83
ssg71
g2083
sg64
(lp2090
S'wsgi_url_scheme'
p2091
asbag57
(g78
g59
NtRp2092
(dp2093
g62
(dp2094
g89
g90
ssg71
g2083
sg64
(lp2095
S':'
asbag57
(g78
g59
NtRp2096
(dp2097
g62
(dp2098
sg71
g2083
sg64
(lp2099
g57
(g58
g59
NtRp2100
(dp2101
g62
(dp2102
g70
I4
ssg71
g2096
sg64
(lp2103
S'http'
p2104
asbasbasbag57
(g73
g59
NtRp2105
(dp2106
g62
(dp2107
sg71
g1205
sg64
(lp2108
g57
(g78
g59
NtRp2109
(dp2110
g62
(dp2111
g82
g83
ssg71
g2105
sg64
(lp2112
S'wsgi_version'
p2113
asbag57
(g78
g59
NtRp2114
(dp2115
g62
(dp2116
g89
g90
ssg71
g2105
sg64
(lp2117
S':'
asbag57
(g78
g59
NtRp2118
(dp2119
g62
(dp2120
sg71
g2105
sg64
(lp2121
g57
(g58
g59
NtRp2122
(dp2123
g62
(dp2124
g70
I4
ssg71
g2118
sg64
(lp2125
g57
(g66
g59
NtRp2126
(dp2127
g62
(dp2128
g70
I3
ssg71
Nsg64
(lp2129
g57
(g73
g59
NtRp2130
(dp2131
g62
(dp2132
sg71
g2126
sg64
(lp2133
g57
(g78
g59
NtRp2134
(dp2135
g62
(dp2136
sg71
g2130
sg64
(lp2137
g57
(g58
g59
NtRp2138
(dp2139
g62
(dp2140
g70
I3
ssg71
g2134
sg64
(lp2141
S'1'
asbasbasbag57
(g73
g59
NtRp2142
(dp2143
g62
(dp2144
sg71
g2126
sg64
(lp2145
g57
(g78
g59
NtRp2146
(dp2147
g62
(dp2148
sg71
g2142
sg64
(lp2149
g57
(g58
g59
NtRp2150
(dp2151
g62
(dp2152
g70
I3
ssg71
g2146
sg64
(lp2153
S'0'
asbasbasbasbasbasbasbasbasbasbasbag57
(g73
g59
NtRp2154
(dp2155
g62
(dp2156
sg71
g67
sg64
(lp2157
g57
(g78
g59
NtRp2158
(dp2159
g62
(dp2160
g82
g83
ssg71
g2154
sg64
(lp2161
S'extension'
p2162
asbag57
(g78
g59
NtRp2163
(dp2164
g62
(dp2165
g89
g90
ssg71
g2154
sg64
(lp2166
S':'
asbag57
(g78
g59
NtRp2167
(dp2168
g62
(dp2169
sg71
g2154
sg64
(lp2170
g57
(g58
g59
NtRp2171
(dp2172
g62
(dp2173
g70
I5
ssg71
g2167
sg64
(lp2174
S'html'
p2175
asbasbasbag57
(g73
g59
NtRp2176
(dp2177
g62
(dp2178
sg71
g67
sg64
(lp2179
g57
(g78
g59
NtRp2180
(dp2181
g62
(dp2182
g82
g83
ssg71
g2176
sg64
(lp2183
S'folder'
p2184
asbag57
(g78
g59
NtRp2185
(dp2186
g62
(dp2187
g89
g90
ssg71
g2176
sg64
(lp2188
S':'
asbag57
(g78
g59
NtRp2189
(dp2190
g62
(dp2191
sg71
g2176
sg64
(lp2192
g57
(g58
g59
NtRp2193
(dp2194
g62
(dp2195
g70
I5
ssg71
g2189
sg64
(lp2196
S'/home/manikanta/Study/web2py/applications/Just_Click_/'
p2197
asbasbasbag57
(g73
g59
NtRp2198
(dp2199
g62
(dp2200
sg71
g67
sg64
(lp2201
g57
(g78
g59
NtRp2202
(dp2203
g62
(dp2204
g82
g83
ssg71
g2198
sg64
(lp2205
S'function'
p2206
asbag57
(g78
g59
NtRp2207
(dp2208
g62
(dp2209
g89
g90
ssg71
g2198
sg64
(lp2210
S':'
asbag57
(g78
g59
NtRp2211
(dp2212
g62
(dp2213
sg71
g2198
sg64
(lp2214
g57
(g58
g59
NtRp2215
(dp2216
g62
(dp2217
g70
I5
ssg71
g2211
sg64
(lp2218
S'show'
p2219
asbasbasbag57
(g73
g59
NtRp2220
(dp2221
g62
(dp2222
sg71
g67
sg64
(lp2223
g57
(g78
g59
NtRp2224
(dp2225
g62
(dp2226
g82
g83
ssg71
g2220
sg64
(lp2227
S'get_vars'
p2228
asbag57
(g78
g59
NtRp2229
(dp2230
g62
(dp2231
g89
g90
ssg71
g2220
sg64
(lp2232
S':'
asbag57
(g78
g59
NtRp2233
(dp2234
g62
(dp2235
sg71
g2220
sg64
(lp2236
g57
(g58
g59
NtRp2237
(dp2238
g62
(dp2239
g70
I5
ssg71
g2233
sg64
(lp2240
g57
(g66
g59
NtRp2241
(dp2242
g62
(dp2243
g70
I4
ssg71
Nsg64
(lp2244
sbasbasbasbag57
(g73
g59
NtRp2245
(dp2246
g62
(dp2247
sg71
g67
sg64
(lp2248
g57
(g78
g59
NtRp2249
(dp2250
g62
(dp2251
g82
g83
ssg71
g2245
sg64
(lp2252
S'global_settings'
p2253
asbag57
(g78
g59
NtRp2254
(dp2255
g62
(dp2256
g89
g90
ssg71
g2245
sg64
(lp2257
S':'
asbag57
(g78
g59
NtRp2258
(dp2259
g62
(dp2260
sg71
g2245
sg64
(lp2261
g57
(g58
g59
NtRp2262
(dp2263
g62
(dp2264
g70
I5
ssg71
g2258
sg64
(lp2265
g57
(g66
g59
NtRp2266
(dp2267
g62
(dp2268
g70
I4
ssg71
Nsg64
(lp2269
g57
(g73
g59
NtRp2270
(dp2271
g62
(dp2272
sg71
g2266
sg64
(lp2273
g57
(g78
g59
NtRp2274
(dp2275
g62
(dp2276
g82
g83
ssg71
g2270
sg64
(lp2277
g1217
asbag57
(g78
g59
NtRp2278
(dp2279
g62
(dp2280
g89
g90
ssg71
g2270
sg64
(lp2281
S':'
asbag57
(g78
g59
NtRp2282
(dp2283
g62
(dp2284
sg71
g2270
sg64
(lp2285
g57
(g58
g59
NtRp2286
(dp2287
g62
(dp2288
g70
I4
ssg71
g2282
sg64
(lp2289
S"set(['/home/manikanta/Study/web2py/applications/My_Note_Book/', '/home/manikanta/Study/web2py/applications/Just_Click_/', '/home/manikanta/Study/web2py/applications/admin/', '/home/manikanta/Study/web2py/applications/welcome/'])"
p2290
asbasbasbag57
(g73
g59
NtRp2291
(dp2292
g62
(dp2293
sg71
g2266
sg64
(lp2294
g57
(g78
g59
NtRp2295
(dp2296
g62
(dp2297
g82
g83
ssg71
g2291
sg64
(lp2298
g1239
asbag57
(g78
g59
NtRp2299
(dp2300
g62
(dp2301
g89
g90
ssg71
g2291
sg64
(lp2302
S':'
asbag57
(g78
g59
NtRp2303
(dp2304
g62
(dp2305
sg71
g2291
sg64
(lp2306
g57
(g58
g59
NtRp2307
(dp2308
g62
(dp2309
g70
I4
ssg71
g2303
sg64
(lp2310
g1252
asbasbasbag57
(g73
g59
NtRp2311
(dp2312
g62
(dp2313
sg71
g2266
sg64
(lp2314
g57
(g78
g59
NtRp2315
(dp2316
g62
(dp2317
g82
g83
ssg71
g2311
sg64
(lp2318
g1261
asbag57
(g78
g59
NtRp2319
(dp2320
g62
(dp2321
g89
g90
ssg71
g2311
sg64
(lp2322
S':'
asbag57
(g78
g59
NtRp2323
(dp2324
g62
(dp2325
sg71
g2311
sg64
(lp2326
g57
(g58
g59
NtRp2327
(dp2328
g62
(dp2329
g70
I4
ssg71
g2323
sg64
(lp2330
g57
(g66
g59
NtRp2331
(dp2332
g62
(dp2333
g70
I3
ssg71
Nsg64
(lp2334
sbasbasbasbag57
(g73
g59
NtRp2335
(dp2336
g62
(dp2337
sg71
g2266
sg64
(lp2338
g57
(g78
g59
NtRp2339
(dp2340
g62
(dp2341
g82
g83
ssg71
g2335
sg64
(lp2342
g1286
asbag57
(g78
g59
NtRp2343
(dp2344
g62
(dp2345
g89
g90
ssg71
g2335
sg64
(lp2346
S':'
asbag57
(g78
g59
NtRp2347
(dp2348
g62
(dp2349
sg71
g2335
sg64
(lp2350
g57
(g58
g59
NtRp2351
(dp2352
g62
(dp2353
g70
I4
ssg71
g2347
sg64
(lp2354
S"<Values at 0x91bb7cc: {'verbose': False, 'ip': '127.0.0.1', 'shutdown_timeout': 5, 'taskbar': False, 'nocron': False, 'pid_filename': 'httpserver.pid', 'maxthreads': None, 'softcron': False, 'server_name': 'Manikanta', 'bpython': False, 'nogui': False, 'port': 8000, 'extcron': False, 'debuglevel': 30, 'test': None, 'folder': '/home/manikanta/Study/web2py', 'config': '', 'import_models': False, 'winservice': '', 'shell': None, 'run': '', 'log_filename': 'httpserver.log', 'args': [''], 'socket_timeout': 5, 'ssl_ca_certificate': None, 'scheduler': None, 'profiler_filename': None, 'ssl_private_key': '', 'password': '12345', 'request_queue_size': 5, 'ssl_certificate': '', 'cronjob': False, 'numthreads': None, 'quiet': False, 'interfaces': None, 'minthreads': None, 'timeout': 10, 'plain': False, 'nobanner': False}>"
p2355
asbasbasbag57
(g73
g59
NtRp2356
(dp2357
g62
(dp2358
sg71
g2266
sg64
(lp2359
g57
(g78
g59
NtRp2360
(dp2361
g62
(dp2362
g82
g83
ssg71
g2356
sg64
(lp2363
g1308
asbag57
(g78
g59
NtRp2364
(dp2365
g62
(dp2366
g89
g90
ssg71
g2356
sg64
(lp2367
S':'
asbag57
(g78
g59
NtRp2368
(dp2369
g62
(dp2370
sg71
g2356
sg64
(lp2371
g57
(g58
g59
NtRp2372
(dp2373
g62
(dp2374
g70
I4
ssg71
g2368
sg64
(lp2375
S'set([])'
p2376
asbasbasbag57
(g73
g59
NtRp2377
(dp2378
g62
(dp2379
sg71
g2266
sg64
(lp2380
g57
(g78
g59
NtRp2381
(dp2382
g62
(dp2383
g82
g83
ssg71
g2377
sg64
(lp2384
g1330
asbag57
(g78
g59
NtRp2385
(dp2386
g62
(dp2387
g89
g90
ssg71
g2377
sg64
(lp2388
S':'
asbag57
(g78
g59
NtRp2389
(dp2390
g62
(dp2391
sg71
g2377
sg64
(lp2392
g57
(g58
g59
NtRp2393
(dp2394
g62
(dp2395
g70
I4
ssg71
g2389
sg64
(lp2396
g100
asbasbasbag57
(g73
g59
NtRp2397
(dp2398
g62
(dp2399
sg71
g2266
sg64
(lp2400
g57
(g78
g59
NtRp2401
(dp2402
g62
(dp2403
g82
g83
ssg71
g2397
sg64
(lp2404
g1351
asbag57
(g78
g59
NtRp2405
(dp2406
g62
(dp2407
g89
g90
ssg71
g2397
sg64
(lp2408
S':'
asbag57
(g78
g59
NtRp2409
(dp2410
g62
(dp2411
sg71
g2397
sg64
(lp2412
g57
(g58
g59
NtRp2413
(dp2414
g62
(dp2415
g70
I4
ssg71
g2409
sg64
(lp2416
g1364
asbasbasbag57
(g73
g59
NtRp2417
(dp2418
g62
(dp2419
sg71
g2266
sg64
(lp2420
g57
(g78
g59
NtRp2421
(dp2422
g62
(dp2423
g82
g83
ssg71
g2417
sg64
(lp2424
g1571
asbag57
(g78
g59
NtRp2425
(dp2426
g62
(dp2427
g89
g90
ssg71
g2417
sg64
(lp2428
S':'
asbag57
(g78
g59
NtRp2429
(dp2430
g62
(dp2431
sg71
g2417
sg64
(lp2432
g57
(g58
g59
NtRp2433
(dp2434
g62
(dp2435
g70
I4
ssg71
g2429
sg64
(lp2436
g100
asbasbasbag57
(g73
g59
NtRp2437
(dp2438
g62
(dp2439
sg71
g2266
sg64
(lp2440
g57
(g78
g59
NtRp2441
(dp2442
g62
(dp2443
g82
g83
ssg71
g2437
sg64
(lp2444
g1592
asbag57
(g78
g59
NtRp2445
(dp2446
g62
(dp2447
g89
g90
ssg71
g2437
sg64
(lp2448
S':'
asbag57
(g78
g59
NtRp2449
(dp2450
g62
(dp2451
sg71
g2437
sg64
(lp2452
g57
(g58
g59
NtRp2453
(dp2454
g62
(dp2455
g70
I4
ssg71
g2449
sg64
(lp2456
g100
asbasbasbag57
(g73
g59
NtRp2457
(dp2458
g62
(dp2459
sg71
g2266
sg64
(lp2460
g57
(g78
g59
NtRp2461
(dp2462
g62
(dp2463
g82
g83
ssg71
g2457
sg64
(lp2464
g1830
asbag57
(g78
g59
NtRp2465
(dp2466
g62
(dp2467
g89
g90
ssg71
g2457
sg64
(lp2468
S':'
asbag57
(g78
g59
NtRp2469
(dp2470
g62
(dp2471
sg71
g2457
sg64
(lp2472
g57
(g58
g59
NtRp2473
(dp2474
g62
(dp2475
g70
I4
ssg71
g2469
sg64
(lp2476
g1843
asbasbasbag57
(g73
g59
NtRp2477
(dp2478
g62
(dp2479
sg71
g2266
sg64
(lp2480
g57
(g78
g59
NtRp2481
(dp2482
g62
(dp2483
g82
g83
ssg71
g2477
sg64
(lp2484
g1873
asbag57
(g78
g59
NtRp2485
(dp2486
g62
(dp2487
g89
g90
ssg71
g2477
sg64
(lp2488
S':'
asbag57
(g78
g59
NtRp2489
(dp2490
g62
(dp2491
sg71
g2477
sg64
(lp2492
g57
(g58
g59
NtRp2493
(dp2494
g62
(dp2495
g70
I4
ssg71
g2489
sg64
(lp2496
g57
(g66
g59
NtRp2497
(dp2498
g62
(dp2499
g70
I3
ssg71
Nsg64
(lp2500
g57
(g73
g59
NtRp2501
(dp2502
g62
(dp2503
sg71
g2497
sg64
(lp2504
g57
(g78
g59
NtRp2505
(dp2506
g62
(dp2507
sg71
g2501
sg64
(lp2508
g57
(g58
g59
NtRp2509
(dp2510
g62
(dp2511
g70
I3
ssg71
g2505
sg64
(lp2512
S'1'
asbasbasbag57
(g73
g59
NtRp2513
(dp2514
g62
(dp2515
sg71
g2497
sg64
(lp2516
g57
(g78
g59
NtRp2517
(dp2518
g62
(dp2519
sg71
g2513
sg64
(lp2520
g57
(g58
g59
NtRp2521
(dp2522
g62
(dp2523
g70
I3
ssg71
g2517
sg64
(lp2524
S'99'
p2525
asbasbasbag57
(g73
g59
NtRp2526
(dp2527
g62
(dp2528
sg71
g2497
sg64
(lp2529
g57
(g78
g59
NtRp2530
(dp2531
g62
(dp2532
sg71
g2526
sg64
(lp2533
g57
(g58
g59
NtRp2534
(dp2535
g62
(dp2536
g70
I3
ssg71
g2530
sg64
(lp2537
S'7'
asbasbasbag57
(g73
g59
NtRp2538
(dp2539
g62
(dp2540
sg71
g2497
sg64
(lp2541
g57
(g78
g59
NtRp2542
(dp2543
g62
(dp2544
sg71
g2538
sg64
(lp2545
g57
(g58
g59
NtRp2546
(dp2547
g62
(dp2548
g70
I3
ssg71
g2542
sg64
(lp2549
S'datetime.datetime(2012, 3, 4, 22, 12, 8)'
p2550
asbasbasbag57
(g73
g59
NtRp2551
(dp2552
g62
(dp2553
sg71
g2497
sg64
(lp2554
g57
(g78
g59
NtRp2555
(dp2556
g62
(dp2557
sg71
g2551
sg64
(lp2558
g57
(g58
g59
NtRp2559
(dp2560
g62
(dp2561
g70
I3
ssg71
g2555
sg64
(lp2562
g1952
asbasbasbasbasbasbasbasbasbasbasbag57
(g73
g59
NtRp2563
(dp2564
g62
(dp2565
sg71
g67
sg64
(lp2566
g57
(g78
g59
NtRp2567
(dp2568
g62
(dp2569
g82
g83
ssg71
g2563
sg64
(lp2570
S'is_https'
p2571
asbag57
(g78
g59
NtRp2572
(dp2573
g62
(dp2574
g89
g90
ssg71
g2563
sg64
(lp2575
S':'
asbag57
(g78
g59
NtRp2576
(dp2577
g62
(dp2578
sg71
g2563
sg64
(lp2579
g57
(g58
g59
NtRp2580
(dp2581
g62
(dp2582
g70
I5
ssg71
g2576
sg64
(lp2583
g100
asbasbasbag57
(g73
g59
NtRp2584
(dp2585
g62
(dp2586
sg71
g67
sg64
(lp2587
g57
(g78
g59
NtRp2588
(dp2589
g62
(dp2590
g82
g83
ssg71
g2584
sg64
(lp2591
S'is_local'
p2592
asbag57
(g78
g59
NtRp2593
(dp2594
g62
(dp2595
g89
g90
ssg71
g2584
sg64
(lp2596
S':'
asbag57
(g78
g59
NtRp2597
(dp2598
g62
(dp2599
sg71
g2584
sg64
(lp2600
g57
(g58
g59
NtRp2601
(dp2602
g62
(dp2603
g70
I5
ssg71
g2597
sg64
(lp2604
g2061
asbasbasbag57
(g73
g59
NtRp2605
(dp2606
g62
(dp2607
sg71
g67
sg64
(lp2608
g57
(g78
g59
NtRp2609
(dp2610
g62
(dp2611
g82
g83
ssg71
g2605
sg64
(lp2612
S'is_restful'
p2613
asbag57
(g78
g59
NtRp2614
(dp2615
g62
(dp2616
g89
g90
ssg71
g2605
sg64
(lp2617
S':'
asbag57
(g78
g59
NtRp2618
(dp2619
g62
(dp2620
sg71
g2605
sg64
(lp2621
g57
(g58
g59
NtRp2622
(dp2623
g62
(dp2624
g70
I5
ssg71
g2618
sg64
(lp2625
g100
asbasbasbag57
(g73
g59
NtRp2626
(dp2627
g62
(dp2628
sg71
g67
sg64
(lp2629
g57
(g78
g59
NtRp2630
(dp2631
g62
(dp2632
g82
g83
ssg71
g2626
sg64
(lp2633
S'now'
p2634
asbag57
(g78
g59
NtRp2635
(dp2636
g62
(dp2637
g89
g90
ssg71
g2626
sg64
(lp2638
S':'
asbag57
(g78
g59
NtRp2639
(dp2640
g62
(dp2641
sg71
g2626
sg64
(lp2642
g57
(g58
g59
NtRp2643
(dp2644
g62
(dp2645
g70
I5
ssg71
g2639
sg64
(lp2646
S'datetime.datetime(2012, 9, 11, 17, 57, 9, 606615)'
p2647
asbasbasbag57
(g73
g59
NtRp2648
(dp2649
g62
(dp2650
sg71
g67
sg64
(lp2651
g57
(g78
g59
NtRp2652
(dp2653
g62
(dp2654
g82
g83
ssg71
g2648
sg64
(lp2655
S'post_vars'
p2656
asbag57
(g78
g59
NtRp2657
(dp2658
g62
(dp2659
g89
g90
ssg71
g2648
sg64
(lp2660
S':'
asbag57
(g78
g59
NtRp2661
(dp2662
g62
(dp2663
sg71
g2648
sg64
(lp2664
g57
(g58
g59
NtRp2665
(dp2666
g62
(dp2667
g70
I5
ssg71
g2661
sg64
(lp2668
g57
(g66
g59
NtRp2669
(dp2670
g62
(dp2671
g70
I4
ssg71
Nsg64
(lp2672
sbasbasbasbag57
(g73
g59
NtRp2673
(dp2674
g62
(dp2675
sg71
g67
sg64
(lp2676
g57
(g78
g59
NtRp2677
(dp2678
g62
(dp2679
g82
g83
ssg71
g2673
sg64
(lp2680
S'raw_args'
p2681
asbag57
(g78
g59
NtRp2682
(dp2683
g62
(dp2684
g89
g90
ssg71
g2673
sg64
(lp2685
S':'
asbag57
(g78
g59
NtRp2686
(dp2687
g62
(dp2688
sg71
g2673
sg64
(lp2689
g57
(g58
g59
NtRp2690
(dp2691
g62
(dp2692
g70
I5
ssg71
g2686
sg64
(lp2693
g159
asbasbasbag57
(g73
g59
NtRp2694
(dp2695
g62
(dp2696
sg71
g67
sg64
(lp2697
g57
(g78
g59
NtRp2698
(dp2699
g62
(dp2700
g82
g83
ssg71
g2694
sg64
(lp2701
S'url'
p2702
asbag57
(g78
g59
NtRp2703
(dp2704
g62
(dp2705
g89
g90
ssg71
g2694
sg64
(lp2706
S':'
asbag57
(g78
g59
NtRp2707
(dp2708
g62
(dp2709
sg71
g2694
sg64
(lp2710
g57
(g58
g59
NtRp2711
(dp2712
g62
(dp2713
g70
I5
ssg71
g2707
sg64
(lp2714
S'/Just_Click_/default/show/Admin'
p2715
asbasbasbag57
(g73
g59
NtRp2716
(dp2717
g62
(dp2718
sg71
g67
sg64
(lp2719
g57
(g78
g59
NtRp2720
(dp2721
g62
(dp2722
g82
g83
ssg71
g2716
sg64
(lp2723
S'utcnow'
p2724
asbag57
(g78
g59
NtRp2725
(dp2726
g62
(dp2727
g89
g90
ssg71
g2716
sg64
(lp2728
S':'
asbag57
(g78
g59
NtRp2729
(dp2730
g62
(dp2731
sg71
g2716
sg64
(lp2732
g57
(g58
g59
NtRp2733
(dp2734
g62
(dp2735
g70
I5
ssg71
g2729
sg64
(lp2736
S'datetime.datetime(2012, 9, 11, 12, 27, 9, 606683)'
p2737
asbasbasbag57
(g73
g59
NtRp2738
(dp2739
g62
(dp2740
sg71
g67
sg64
(lp2741
g57
(g78
g59
NtRp2742
(dp2743
g62
(dp2744
g82
g83
ssg71
g2738
sg64
(lp2745
S'uuid'
p2746
asbag57
(g78
g59
NtRp2747
(dp2748
g62
(dp2749
g89
g90
ssg71
g2738
sg64
(lp2750
S':'
asbag57
(g78
g59
NtRp2751
(dp2752
g62
(dp2753
sg71
g2738
sg64
(lp2754
g57
(g58
g59
NtRp2755
(dp2756
g62
(dp2757
g70
I5
ssg71
g2751
sg64
(lp2758
S'Just_Click_/127.0.0.1.2012-09-11.17-57-09.a4ca8c6a-7904-4bcb-a096-2be676787cc7'
p2759
asbasbasbag57
(g73
g59
NtRp2760
(dp2761
g62
(dp2762
sg71
g67
sg64
(lp2763
g57
(g78
g59
NtRp2764
(dp2765
g62
(dp2766
g82
g83
ssg71
g2760
sg64
(lp2767
S'vars'
p2768
asbag57
(g78
g59
NtRp2769
(dp2770
g62
(dp2771
g89
g90
ssg71
g2760
sg64
(lp2772
S':'
asbag57
(g78
g59
NtRp2773
(dp2774
g62
(dp2775
sg71
g2760
sg64
(lp2776
g57
(g58
g59
NtRp2777
(dp2778
g62
(dp2779
g70
I5
ssg71
g2773
sg64
(lp2780
g57
(g66
g59
NtRp2781
(dp2782
g62
(dp2783
g70
I4
ssg71
Nsg64
(lp2784
sbasbasbasbag57
(g73
g59
NtRp2785
(dp2786
g62
(dp2787
sg71
g67
sg64
(lp2788
g57
(g78
g59
NtRp2789
(dp2790
g62
(dp2791
g82
g83
ssg71
g2785
sg64
(lp2792
S'wsgi'
p2793
asbag57
(g78
g59
NtRp2794
(dp2795
g62
(dp2796
g89
g90
ssg71
g2785
sg64
(lp2797
S':'
asbag57
(g78
g59
NtRp2798
(dp2799
g62
(dp2800
sg71
g2785
sg64
(lp2801
g57
(g58
g59
NtRp2802
(dp2803
g62
(dp2804
g70
I5
ssg71
g2798
sg64
(lp2805
g57
(g66
g59
NtRp2806
(dp2807
g62
(dp2808
g70
I4
ssg71
Nsg64
(lp2809
g57
(g73
g59
NtRp2810
(dp2811
g62
(dp2812
sg71
g2806
sg64
(lp2813
g57
(g78
g59
NtRp2814
(dp2815
g62
(dp2816
g82
g83
ssg71
g2810
sg64
(lp2817
S'environ'
p2818
asbag57
(g78
g59
NtRp2819
(dp2820
g62
(dp2821
g89
g90
ssg71
g2810
sg64
(lp2822
S':'
asbag57
(g78
g59
NtRp2823
(dp2824
g62
(dp2825
sg71
g2810
sg64
(lp2826
g57
(g58
g59
NtRp2827
(dp2828
g62
(dp2829
g70
I4
ssg71
g2823
sg64
(lp2830
g57
(g66
g59
NtRp2831
(dp2832
g62
(dp2833
g70
I3
ssg71
Nsg64
(lp2834
g57
(g73
g59
NtRp2835
(dp2836
g62
(dp2837
sg71
g2831
sg64
(lp2838
g57
(g78
g59
NtRp2839
(dp2840
g62
(dp2841
g82
g83
ssg71
g2835
sg64
(lp2842
S'HTTP_ACCEPT'
p2843
asbag57
(g78
g59
NtRp2844
(dp2845
g62
(dp2846
g89
g90
ssg71
g2835
sg64
(lp2847
S':'
asbag57
(g78
g59
NtRp2848
(dp2849
g62
(dp2850
sg71
g2835
sg64
(lp2851
g57
(g58
g59
NtRp2852
(dp2853
g62
(dp2854
g70
I3
ssg71
g2848
sg64
(lp2855
g1386
asbasbasbag57
(g73
g59
NtRp2856
(dp2857
g62
(dp2858
sg71
g2831
sg64
(lp2859
g57
(g78
g59
NtRp2860
(dp2861
g62
(dp2862
g82
g83
ssg71
g2856
sg64
(lp2863
S'HTTP_ACCEPT_CHARSET'
p2864
asbag57
(g78
g59
NtRp2865
(dp2866
g62
(dp2867
g89
g90
ssg71
g2856
sg64
(lp2868
S':'
asbag57
(g78
g59
NtRp2869
(dp2870
g62
(dp2871
sg71
g2856
sg64
(lp2872
g57
(g58
g59
NtRp2873
(dp2874
g62
(dp2875
g70
I3
ssg71
g2869
sg64
(lp2876
g1408
asbasbasbag57
(g73
g59
NtRp2877
(dp2878
g62
(dp2879
sg71
g2831
sg64
(lp2880
g57
(g78
g59
NtRp2881
(dp2882
g62
(dp2883
g82
g83
ssg71
g2877
sg64
(lp2884
S'HTTP_ACCEPT_ENCODING'
p2885
asbag57
(g78
g59
NtRp2886
(dp2887
g62
(dp2888
g89
g90
ssg71
g2877
sg64
(lp2889
S':'
asbag57
(g78
g59
NtRp2890
(dp2891
g62
(dp2892
sg71
g2877
sg64
(lp2893
g57
(g58
g59
NtRp2894
(dp2895
g62
(dp2896
g70
I3
ssg71
g2890
sg64
(lp2897
g1430
asbasbasbag57
(g73
g59
NtRp2898
(dp2899
g62
(dp2900
sg71
g2831
sg64
(lp2901
g57
(g78
g59
NtRp2902
(dp2903
g62
(dp2904
g82
g83
ssg71
g2898
sg64
(lp2905
S'HTTP_ACCEPT_LANGUAGE'
p2906
asbag57
(g78
g59
NtRp2907
(dp2908
g62
(dp2909
g89
g90
ssg71
g2898
sg64
(lp2910
S':'
asbag57
(g78
g59
NtRp2911
(dp2912
g62
(dp2913
sg71
g2898
sg64
(lp2914
g57
(g58
g59
NtRp2915
(dp2916
g62
(dp2917
g70
I3
ssg71
g2911
sg64
(lp2918
g1452
asbasbasbag57
(g73
g59
NtRp2919
(dp2920
g62
(dp2921
sg71
g2831
sg64
(lp2922
g57
(g78
g59
NtRp2923
(dp2924
g62
(dp2925
g82
g83
ssg71
g2919
sg64
(lp2926
S'HTTP_CONNECTION'
p2927
asbag57
(g78
g59
NtRp2928
(dp2929
g62
(dp2930
g89
g90
ssg71
g2919
sg64
(lp2931
S':'
asbag57
(g78
g59
NtRp2932
(dp2933
g62
(dp2934
sg71
g2919
sg64
(lp2935
g57
(g58
g59
NtRp2936
(dp2937
g62
(dp2938
g70
I3
ssg71
g2932
sg64
(lp2939
g1474
asbasbasbag57
(g73
g59
NtRp2940
(dp2941
g62
(dp2942
sg71
g2831
sg64
(lp2943
g57
(g78
g59
NtRp2944
(dp2945
g62
(dp2946
g82
g83
ssg71
g2940
sg64
(lp2947
S'HTTP_COOKIE'
p2948
asbag57
(g78
g59
NtRp2949
(dp2950
g62
(dp2951
g89
g90
ssg71
g2940
sg64
(lp2952
S':'
asbag57
(g78
g59
NtRp2953
(dp2954
g62
(dp2955
sg71
g2940
sg64
(lp2956
g57
(g58
g59
NtRp2957
(dp2958
g62
(dp2959
g70
I3
ssg71
g2953
sg64
(lp2960
g1496
asbasbasbag57
(g73
g59
NtRp2961
(dp2962
g62
(dp2963
sg71
g2831
sg64
(lp2964
g57
(g78
g59
NtRp2965
(dp2966
g62
(dp2967
g82
g83
ssg71
g2961
sg64
(lp2968
S'HTTP_HOST'
p2969
asbag57
(g78
g59
NtRp2970
(dp2971
g62
(dp2972
g89
g90
ssg71
g2961
sg64
(lp2973
S':'
asbag57
(g78
g59
NtRp2974
(dp2975
g62
(dp2976
sg71
g2961
sg64
(lp2977
g57
(g58
g59
NtRp2978
(dp2979
g62
(dp2980
g70
I3
ssg71
g2974
sg64
(lp2981
g1518
asbasbasbag57
(g73
g59
NtRp2982
(dp2983
g62
(dp2984
sg71
g2831
sg64
(lp2985
g57
(g78
g59
NtRp2986
(dp2987
g62
(dp2988
g82
g83
ssg71
g2982
sg64
(lp2989
S'HTTP_REFERER'
p2990
asbag57
(g78
g59
NtRp2991
(dp2992
g62
(dp2993
g89
g90
ssg71
g2982
sg64
(lp2994
S':'
asbag57
(g78
g59
NtRp2995
(dp2996
g62
(dp2997
sg71
g2982
sg64
(lp2998
g57
(g58
g59
NtRp2999
(dp3000
g62
(dp3001
g70
I3
ssg71
g2995
sg64
(lp3002
g1540
asbasbasbag57
(g73
g59
NtRp3003
(dp3004
g62
(dp3005
sg71
g2831
sg64
(lp3006
g57
(g78
g59
NtRp3007
(dp3008
g62
(dp3009
g82
g83
ssg71
g3003
sg64
(lp3010
S'HTTP_USER_AGENT'
p3011
asbag57
(g78
g59
NtRp3012
(dp3013
g62
(dp3014
g89
g90
ssg71
g3003
sg64
(lp3015
S':'
asbag57
(g78
g59
NtRp3016
(dp3017
g62
(dp3018
sg71
g3003
sg64
(lp3019
g57
(g58
g59
NtRp3020
(dp3021
g62
(dp3022
g70
I3
ssg71
g3016
sg64
(lp3023
g1562
asbasbasbag57
(g73
g59
NtRp3024
(dp3025
g62
(dp3026
sg71
g2831
sg64
(lp3027
g57
(g78
g59
NtRp3028
(dp3029
g62
(dp3030
g82
g83
ssg71
g3024
sg64
(lp3031
S'PATH_INFO'
p3032
asbag57
(g78
g59
NtRp3033
(dp3034
g62
(dp3035
g89
g90
ssg71
g3024
sg64
(lp3036
S':'
asbag57
(g78
g59
NtRp3037
(dp3038
g62
(dp3039
sg71
g3024
sg64
(lp3040
g57
(g58
g59
NtRp3041
(dp3042
g62
(dp3043
g70
I3
ssg71
g3037
sg64
(lp3044
g1626
asbasbasbag57
(g73
g59
NtRp3045
(dp3046
g62
(dp3047
sg71
g2831
sg64
(lp3048
g57
(g78
g59
NtRp3049
(dp3050
g62
(dp3051
g82
g83
ssg71
g3045
sg64
(lp3052
S'QUERY_STRING'
p3053
asbag57
(g78
g59
NtRp3054
(dp3055
g62
(dp3056
g89
g90
ssg71
g3045
sg64
(lp3057
S':'
asbag57
(g78
g59
NtRp3058
(dp3059
g62
(dp3060
sg71
g3045
sg64
(lp3061
g57
(g58
g59
NtRp3062
(dp3063
g62
(dp3064
g70
I3
ssg71
g3058
sg64
(lp3065
S''
asbasbasbag57
(g73
g59
NtRp3066
(dp3067
g62
(dp3068
sg71
g2831
sg64
(lp3069
g57
(g78
g59
NtRp3070
(dp3071
g62
(dp3072
g82
g83
ssg71
g3066
sg64
(lp3073
S'REMOTE_ADDR'
p3074
asbag57
(g78
g59
NtRp3075
(dp3076
g62
(dp3077
g89
g90
ssg71
g3066
sg64
(lp3078
S':'
asbag57
(g78
g59
NtRp3079
(dp3080
g62
(dp3081
sg71
g3066
sg64
(lp3082
g57
(g58
g59
NtRp3083
(dp3084
g62
(dp3085
g70
I3
ssg71
g3079
sg64
(lp3086
g203
asbasbasbag57
(g73
g59
NtRp3087
(dp3088
g62
(dp3089
sg71
g2831
sg64
(lp3090
g57
(g78
g59
NtRp3091
(dp3092
g62
(dp3093
g82
g83
ssg71
g3087
sg64
(lp3094
S'REMOTE_PORT'
p3095
asbag57
(g78
g59
NtRp3096
(dp3097
g62
(dp3098
g89
g90
ssg71
g3087
sg64
(lp3099
S':'
asbag57
(g78
g59
NtRp3100
(dp3101
g62
(dp3102
sg71
g3087
sg64
(lp3103
g57
(g58
g59
NtRp3104
(dp3105
g62
(dp3106
g70
I3
ssg71
g3100
sg64
(lp3107
g1690
asbasbasbag57
(g73
g59
NtRp3108
(dp3109
g62
(dp3110
sg71
g2831
sg64
(lp3111
g57
(g78
g59
NtRp3112
(dp3113
g62
(dp3114
g82
g83
ssg71
g3108
sg64
(lp3115
S'REQUEST_METHOD'
p3116
asbag57
(g78
g59
NtRp3117
(dp3118
g62
(dp3119
g89
g90
ssg71
g3108
sg64
(lp3120
S':'
asbag57
(g78
g59
NtRp3121
(dp3122
g62
(dp3123
sg71
g3108
sg64
(lp3124
g57
(g58
g59
NtRp3125
(dp3126
g62
(dp3127
g70
I3
ssg71
g3121
sg64
(lp3128
g1712
asbasbasbag57
(g73
g59
NtRp3129
(dp3130
g62
(dp3131
sg71
g2831
sg64
(lp3132
g57
(g78
g59
NtRp3133
(dp3134
g62
(dp3135
g82
g83
ssg71
g3129
sg64
(lp3136
S'SCRIPT_NAME'
p3137
asbag57
(g78
g59
NtRp3138
(dp3139
g62
(dp3140
g89
g90
ssg71
g3129
sg64
(lp3141
S':'
asbag57
(g78
g59
NtRp3142
(dp3143
g62
(dp3144
sg71
g3129
sg64
(lp3145
g57
(g58
g59
NtRp3146
(dp3147
g62
(dp3148
g70
I3
ssg71
g3142
sg64
(lp3149
S''
asbasbasbag57
(g73
g59
NtRp3150
(dp3151
g62
(dp3152
sg71
g2831
sg64
(lp3153
g57
(g78
g59
NtRp3154
(dp3155
g62
(dp3156
g82
g83
ssg71
g3150
sg64
(lp3157
S'SERVER_NAME'
p3158
asbag57
(g78
g59
NtRp3159
(dp3160
g62
(dp3161
g89
g90
ssg71
g3150
sg64
(lp3162
S':'
asbag57
(g78
g59
NtRp3163
(dp3164
g62
(dp3165
sg71
g3150
sg64
(lp3166
g57
(g58
g59
NtRp3167
(dp3168
g62
(dp3169
g70
I3
ssg71
g3163
sg64
(lp3170
g1755
asbasbasbag57
(g73
g59
NtRp3171
(dp3172
g62
(dp3173
sg71
g2831
sg64
(lp3174
g57
(g78
g59
NtRp3175
(dp3176
g62
(dp3177
g82
g83
ssg71
g3171
sg64
(lp3178
S'SERVER_PORT'
p3179
asbag57
(g78
g59
NtRp3180
(dp3181
g62
(dp3182
g89
g90
ssg71
g3171
sg64
(lp3183
S':'
asbag57
(g78
g59
NtRp3184
(dp3185
g62
(dp3186
sg71
g3171
sg64
(lp3187
g57
(g58
g59
NtRp3188
(dp3189
g62
(dp3190
g70
I3
ssg71
g3184
sg64
(lp3191
g1777
asbasbasbag57
(g73
g59
NtRp3192
(dp3193
g62
(dp3194
sg71
g2831
sg64
(lp3195
g57
(g78
g59
NtRp3196
(dp3197
g62
(dp3198
g82
g83
ssg71
g3192
sg64
(lp3199
S'SERVER_PROTOCOL'
p3200
asbag57
(g78
g59
NtRp3201
(dp3202
g62
(dp3203
g89
g90
ssg71
g3192
sg64
(lp3204
S':'
asbag57
(g78
g59
NtRp3205
(dp3206
g62
(dp3207
sg71
g3192
sg64
(lp3208
g57
(g58
g59
NtRp3209
(dp3210
g62
(dp3211
g70
I3
ssg71
g3205
sg64
(lp3212
g1799
asbasbasbag57
(g73
g59
NtRp3213
(dp3214
g62
(dp3215
sg71
g2831
sg64
(lp3216
g57
(g78
g59
NtRp3217
(dp3218
g62
(dp3219
g82
g83
ssg71
g3213
sg64
(lp3220
S'SERVER_SOFTWARE'
p3221
asbag57
(g78
g59
NtRp3222
(dp3223
g62
(dp3224
g89
g90
ssg71
g3213
sg64
(lp3225
S':'
asbag57
(g78
g59
NtRp3226
(dp3227
g62
(dp3228
sg71
g3213
sg64
(lp3229
g57
(g58
g59
NtRp3230
(dp3231
g62
(dp3232
g70
I3
ssg71
g3226
sg64
(lp3233
g1821
asbasbasbag57
(g73
g59
NtRp3234
(dp3235
g62
(dp3236
sg71
g2831
sg64
(lp3237
g57
(g78
g59
NtRp3238
(dp3239
g62
(dp3240
g82
g83
ssg71
g3234
sg64
(lp3241
S'wsgi.errors'
p3242
asbag57
(g78
g59
NtRp3243
(dp3244
g62
(dp3245
g89
g90
ssg71
g3234
sg64
(lp3246
S':'
asbag57
(g78
g59
NtRp3247
(dp3248
g62
(dp3249
sg71
g3234
sg64
(lp3250
g57
(g58
g59
NtRp3251
(dp3252
g62
(dp3253
g70
I3
ssg71
g3247
sg64
(lp3254
S"<open file '<stderr>', mode 'w' at 0xb728a0d0>"
p3255
asbasbasbag57
(g73
g59
NtRp3256
(dp3257
g62
(dp3258
sg71
g2831
sg64
(lp3259
g57
(g78
g59
NtRp3260
(dp3261
g62
(dp3262
g82
g83
ssg71
g3256
sg64
(lp3263
S'wsgi.file_wrapper'
p3264
asbag57
(g78
g59
NtRp3265
(dp3266
g62
(dp3267
g89
g90
ssg71
g3256
sg64
(lp3268
S':'
asbag57
(g78
g59
NtRp3269
(dp3270
g62
(dp3271
sg71
g3256
sg64
(lp3272
g57
(g58
g59
NtRp3273
(dp3274
g62
(dp3275
g70
I3
ssg71
g3269
sg64
(lp3276
S'<class wsgiref.util.FileWrapper at 0x918ce9c>'
p3277
asbasbasbag57
(g73
g59
NtRp3278
(dp3279
g62
(dp3280
sg71
g2831
sg64
(lp3281
g57
(g78
g59
NtRp3282
(dp3283
g62
(dp3284
g82
g83
ssg71
g3278
sg64
(lp3285
S'wsgi.input'
p3286
asbag57
(g78
g59
NtRp3287
(dp3288
g62
(dp3289
g89
g90
ssg71
g3278
sg64
(lp3290
S':'
asbag57
(g78
g59
NtRp3291
(dp3292
g62
(dp3293
sg71
g3278
sg64
(lp3294
g57
(g58
g59
NtRp3295
(dp3296
g62
(dp3297
g70
I3
ssg71
g3291
sg64
(lp3298
S'<cStringIO.StringO object at 0xaeaad220>'
p3299
asbasbasbag57
(g73
g59
NtRp3300
(dp3301
g62
(dp3302
sg71
g2831
sg64
(lp3303
g57
(g78
g59
NtRp3304
(dp3305
g62
(dp3306
g82
g83
ssg71
g3300
sg64
(lp3307
S'wsgi.multiprocess'
p3308
asbag57
(g78
g59
NtRp3309
(dp3310
g62
(dp3311
g89
g90
ssg71
g3300
sg64
(lp3312
S':'
asbag57
(g78
g59
NtRp3313
(dp3314
g62
(dp3315
sg71
g3300
sg64
(lp3316
g57
(g58
g59
NtRp3317
(dp3318
g62
(dp3319
g70
I3
ssg71
g3313
sg64
(lp3320
g100
asbasbasbag57
(g73
g59
NtRp3321
(dp3322
g62
(dp3323
sg71
g2831
sg64
(lp3324
g57
(g78
g59
NtRp3325
(dp3326
g62
(dp3327
g82
g83
ssg71
g3321
sg64
(lp3328
S'wsgi.multithread'
p3329
asbag57
(g78
g59
NtRp3330
(dp3331
g62
(dp3332
g89
g90
ssg71
g3321
sg64
(lp3333
S':'
asbag57
(g78
g59
NtRp3334
(dp3335
g62
(dp3336
sg71
g3321
sg64
(lp3337
g57
(g58
g59
NtRp3338
(dp3339
g62
(dp3340
g70
I3
ssg71
g3334
sg64
(lp3341
g2061
asbasbasbag57
(g73
g59
NtRp3342
(dp3343
g62
(dp3344
sg71
g2831
sg64
(lp3345
g57
(g78
g59
NtRp3346
(dp3347
g62
(dp3348
g82
g83
ssg71
g3342
sg64
(lp3349
S'wsgi.run_once'
p3350
asbag57
(g78
g59
NtRp3351
(dp3352
g62
(dp3353
g89
g90
ssg71
g3342
sg64
(lp3354
S':'
asbag57
(g78
g59
NtRp3355
(dp3356
g62
(dp3357
sg71
g3342
sg64
(lp3358
g57
(g58
g59
NtRp3359
(dp3360
g62
(dp3361
g70
I3
ssg71
g3355
sg64
(lp3362
g100
asbasbasbag57
(g73
g59
NtRp3363
(dp3364
g62
(dp3365
sg71
g2831
sg64
(lp3366
g57
(g78
g59
NtRp3367
(dp3368
g62
(dp3369
g82
g83
ssg71
g3363
sg64
(lp3370
S'wsgi.url_scheme'
p3371
asbag57
(g78
g59
NtRp3372
(dp3373
g62
(dp3374
g89
g90
ssg71
g3363
sg64
(lp3375
S':'
asbag57
(g78
g59
NtRp3376
(dp3377
g62
(dp3378
sg71
g3363
sg64
(lp3379
g57
(g58
g59
NtRp3380
(dp3381
g62
(dp3382
g70
I3
ssg71
g3376
sg64
(lp3383
g2104
asbasbasbag57
(g73
g59
NtRp3384
(dp3385
g62
(dp3386
sg71
g2831
sg64
(lp3387
g57
(g78
g59
NtRp3388
(dp3389
g62
(dp3390
g82
g83
ssg71
g3384
sg64
(lp3391
S'wsgi.version'
p3392
asbag57
(g78
g59
NtRp3393
(dp3394
g62
(dp3395
g89
g90
ssg71
g3384
sg64
(lp3396
S':'
asbag57
(g78
g59
NtRp3397
(dp3398
g62
(dp3399
sg71
g3384
sg64
(lp3400
g57
(g58
g59
NtRp3401
(dp3402
g62
(dp3403
g70
I3
ssg71
g3397
sg64
(lp3404
S'1'
asbasbasbasbasbasbasbasbasbasbasbasbasbsS'frames'
p3405
(lp3406
(dp3407
S'file'
p3408
S'/home/manikanta/Study/web2py/gluon/restricted.py'
p3409
sS'dump'
p3410
(dp3411
S'environment'
p3412
S"{'A': <class 'gluon.html.A'>, 'Auth': <class 'gluon.tools.Auth'>, 'B': <class 'gluon.html.B'>, 'BEAUTIFY': <class 'gluon.html.BEAUTIFY'>, 'BODY': <class 'gluon.html.BODY'>, 'BR': <class 'gluon.html.BR'>, 'BUTTON': <class 'gluon.html.BUTTON'>, 'CAT': <class 'gluon.html.CAT'>, 'CENTER': <class 'gluon.html.CENTER'>, 'CLEANUP': <class 'gluon.validators.CLEANUP'>, ...}"
p3413
sS'ccode'
p3414
S'<code object <module> at 0xaf227a88, file "/home...ons/Just_Click_/views/default/show.html", line 1>'
p3415
ssS'lnum'
p3416
I205
sS'lines'
p3417
(dp3418
I200
S'    try:'
p3419
sI201
S'        if type(code) == types.CodeType:'
p3420
sI202
S'            ccode = code'
p3421
sI203
S'        else:'
p3422
sI204
S'            ccode = compile2(code,layer)'
p3423
sI205
S'        exec ccode in environment'
p3424
sI206
S'    except HTTP:'
p3425
sI207
S'        raise'
p3426
sI208
S'    except RestrictedError:'
p3427
sI209
S'        # do not encapsulate (obfuscate) the original RestrictedError'
p3428
ssS'call'
p3429
S'(code=r"response.write(\'<!DOCTYPE html>\\n<!-- paulirish....ponse.write(\'\\n</body>\\n</html>\\n\', escape=False)", environment={\'A\': <class \'gluon.html.A\'>, \'Auth\': <class \'gluon.tools.Auth\'>, \'B\': <class \'gluon.html.B\'>, \'BEAUTIFY\': <class \'gluon.html.BEAUTIFY\'>, \'BODY\': <class \'gluon.html.BODY\'>, \'BR\': <class \'gluon.html.BR\'>, \'BUTTON\': <class \'gluon.html.BUTTON\'>, \'CAT\': <class \'gluon.html.CAT\'>, \'CENTER\': <class \'gluon.html.CENTER\'>, \'CLEANUP\': <class \'gluon.validators.CLEANUP\'>, ...}, layer=\'/home/manikanta/Study/web2py/applications/Just_Click_/views/default/show.html\')'
p3430
sS'func'
p3431
S'restricted'
p3432
sa(dp3433
g3408
S'/home/manikanta/Study/web2py/applications/Just_Click_/views/default/show.html'
p3434
sg3410
(dp3435
sg3416
I90
sg3417
(dp3436
I96
S'response.write(image.likecount)'
p3437
sI97
S"response.write('\\n<table border=0>\\n<tr>\\n<td>\\n', escape=False)"
p3438
sI98
S'if not db(w==db.like.name)(image.id==db.like.imageid).select(db.like.ALL):'
p3439
sI99
S"    response.write('\\n', escape=False)"
p3440
sI100
S'    response.write(LI(A(\'Like\' , _href=URL("like" , args=[w,image.id,image.likecount+1]))))'
p3441
sI81
S'response.write(\'\\n        \\n        <div class="\', escape=False)'
p3442
sI82
S'response.write(middle_columns)'
p3443
sI83
S'response.write(\' columns center">\\n          \', escape=False)'
p3444
sI84
S"response.write('\\n          ', escape=False)"
p3445
sI85
S"response.write('\\n\\n<p>\\n', escape=False)"
p3446
sI86
S'response.write(LI(A("UPLOAD IMAGE HERE " , _href=URL("upload" , args=123))))'
p3447
sI87
S"response.write('\\n<p>\\n', escape=False)"
p3448
sI88
S"w = auth.user.first_name+'_'+auth.user.last_name"
p3449
sI89
S"response.write('\\n\\n<table border=0>\\n<tr>\\n<td>\\n<h4>Image Posted by ', escape=False)"
p3450
sI90
S'response.write(image.uploaded_by)'
p3451
sI91
S"response.write(': ', escape=False)"
p3452
sI92
S'response.write(image.title)'
p3453
sI93
S'response.write(\'</h4>\\n<center>\\n<img width="600px"\\n     src="\', escape=False)'
p3454
sI94
S"response.write(URL('download', args=image.file))"
p3455
sI95
S'response.write(\'" />\\n</center>\\nNO. OF LIKES : \', escape=False)'
p3456
ssg3429
S'()'
p3457
sg3431
S'<module>'
p3458
sasS'pyver'
p3459
S'Python 2.7.3: /usr/bin/python'
p3460
sS'session'
p3461
g57
(g58
g59
NtRp3462
(dp3463
g62
(dp3464
sg64
(lp3465
g57
(g66
g59
NtRp3466
(dp3467
g62
(dp3468
g70
I5
ssg71
Nsg64
(lp3469
g57
(g73
g59
NtRp3470
(dp3471
g62
(dp3472
sg71
g3466
sg64
(lp3473
g57
(g78
g59
NtRp3474
(dp3475
g62
(dp3476
g82
g83
ssg71
g3470
sg64
(lp3477
S'auth'
p3478
asbag57
(g78
g59
NtRp3479
(dp3480
g62
(dp3481
g89
g90
ssg71
g3470
sg64
(lp3482
S':'
asbag57
(g78
g59
NtRp3483
(dp3484
g62
(dp3485
sg71
g3470
sg64
(lp3486
g57
(g58
g59
NtRp3487
(dp3488
g62
(dp3489
g70
I5
ssg71
g3483
sg64
(lp3490
g57
(g66
g59
NtRp3491
(dp3492
g62
(dp3493
g70
I4
ssg71
Nsg64
(lp3494
g57
(g73
g59
NtRp3495
(dp3496
g62
(dp3497
sg71
g3491
sg64
(lp3498
g57
(g78
g59
NtRp3499
(dp3500
g62
(dp3501
g82
g83
ssg71
g3495
sg64
(lp3502
S'expiration'
p3503
asbag57
(g78
g59
NtRp3504
(dp3505
g62
(dp3506
g89
g90
ssg71
g3495
sg64
(lp3507
S':'
asbag57
(g78
g59
NtRp3508
(dp3509
g62
(dp3510
sg71
g3495
sg64
(lp3511
g57
(g58
g59
NtRp3512
(dp3513
g62
(dp3514
g70
I4
ssg71
g3508
sg64
(lp3515
S'3600'
p3516
asbasbasbag57
(g73
g59
NtRp3517
(dp3518
g62
(dp3519
sg71
g3491
sg64
(lp3520
g57
(g78
g59
NtRp3521
(dp3522
g62
(dp3523
g82
g83
ssg71
g3517
sg64
(lp3524
S'hmac_key'
p3525
asbag57
(g78
g59
NtRp3526
(dp3527
g62
(dp3528
g89
g90
ssg71
g3517
sg64
(lp3529
S':'
asbag57
(g78
g59
NtRp3530
(dp3531
g62
(dp3532
sg71
g3517
sg64
(lp3533
g57
(g58
g59
NtRp3534
(dp3535
g62
(dp3536
g70
I4
ssg71
g3530
sg64
(lp3537
S'2a3a665d-2193-4601-ac94-d1b21706a0f7'
p3538
asbasbasbag57
(g73
g59
NtRp3539
(dp3540
g62
(dp3541
sg71
g3491
sg64
(lp3542
g57
(g78
g59
NtRp3543
(dp3544
g62
(dp3545
g82
g83
ssg71
g3539
sg64
(lp3546
S'last_visit'
p3547
asbag57
(g78
g59
NtRp3548
(dp3549
g62
(dp3550
g89
g90
ssg71
g3539
sg64
(lp3551
S':'
asbag57
(g78
g59
NtRp3552
(dp3553
g62
(dp3554
sg71
g3539
sg64
(lp3555
g57
(g58
g59
NtRp3556
(dp3557
g62
(dp3558
g70
I4
ssg71
g3552
sg64
(lp3559
S'datetime.datetime(2012, 9, 11, 17, 54, 36, 439789)'
p3560
asbasbasbag57
(g73
g59
NtRp3561
(dp3562
g62
(dp3563
sg71
g3491
sg64
(lp3564
g57
(g78
g59
NtRp3565
(dp3566
g62
(dp3567
g82
g83
ssg71
g3561
sg64
(lp3568
S'remember'
p3569
asbag57
(g78
g59
NtRp3570
(dp3571
g62
(dp3572
g89
g90
ssg71
g3561
sg64
(lp3573
S':'
asbag57
(g78
g59
NtRp3574
(dp3575
g62
(dp3576
sg71
g3561
sg64
(lp3577
g57
(g58
g59
NtRp3578
(dp3579
g62
(dp3580
g70
I4
ssg71
g3574
sg64
(lp3581
g100
asbasbasbag57
(g73
g59
NtRp3582
(dp3583
g62
(dp3584
sg71
g3491
sg64
(lp3585
g57
(g78
g59
NtRp3586
(dp3587
g62
(dp3588
g82
g83
ssg71
g3582
sg64
(lp3589
S'user'
p3590
asbag57
(g78
g59
NtRp3591
(dp3592
g62
(dp3593
g89
g90
ssg71
g3582
sg64
(lp3594
S':'
asbag57
(g78
g59
NtRp3595
(dp3596
g62
(dp3597
sg71
g3582
sg64
(lp3598
g57
(g58
g59
NtRp3599
(dp3600
g62
(dp3601
g70
I4
ssg71
g3595
sg64
(lp3602
g57
(g66
g59
NtRp3603
(dp3604
g62
(dp3605
g70
I3
ssg71
Nsg64
(lp3606
g57
(g73
g59
NtRp3607
(dp3608
g62
(dp3609
sg71
g3603
sg64
(lp3610
g57
(g78
g59
NtRp3611
(dp3612
g62
(dp3613
g82
g83
ssg71
g3607
sg64
(lp3614
S'email'
p3615
asbag57
(g78
g59
NtRp3616
(dp3617
g62
(dp3618
g89
g90
ssg71
g3607
sg64
(lp3619
S':'
asbag57
(g78
g59
NtRp3620
(dp3621
g62
(dp3622
sg71
g3607
sg64
(lp3623
g57
(g58
g59
NtRp3624
(dp3625
g62
(dp3626
g70
I3
ssg71
g3620
sg64
(lp3627
S'admin@gmail.com'
p3628
asbasbasbag57
(g73
g59
NtRp3629
(dp3630
g62
(dp3631
sg71
g3603
sg64
(lp3632
g57
(g78
g59
NtRp3633
(dp3634
g62
(dp3635
g82
g83
ssg71
g3629
sg64
(lp3636
S'first_name'
p3637
asbag57
(g78
g59
NtRp3638
(dp3639
g62
(dp3640
g89
g90
ssg71
g3629
sg64
(lp3641
S':'
asbag57
(g78
g59
NtRp3642
(dp3643
g62
(dp3644
sg71
g3629
sg64
(lp3645
g57
(g58
g59
NtRp3646
(dp3647
g62
(dp3648
g70
I3
ssg71
g3642
sg64
(lp3649
S'Admin'
p3650
asbasbasbag57
(g73
g59
NtRp3651
(dp3652
g62
(dp3653
sg71
g3603
sg64
(lp3654
g57
(g78
g59
NtRp3655
(dp3656
g62
(dp3657
g82
g83
ssg71
g3651
sg64
(lp3658
S'id'
p3659
asbag57
(g78
g59
NtRp3660
(dp3661
g62
(dp3662
g89
g90
ssg71
g3651
sg64
(lp3663
S':'
asbag57
(g78
g59
NtRp3664
(dp3665
g62
(dp3666
sg71
g3651
sg64
(lp3667
g57
(g58
g59
NtRp3668
(dp3669
g62
(dp3670
g70
I3
ssg71
g3664
sg64
(lp3671
S'4'
asbasbasbag57
(g73
g59
NtRp3672
(dp3673
g62
(dp3674
sg71
g3603
sg64
(lp3675
g57
(g78
g59
NtRp3676
(dp3677
g62
(dp3678
g82
g83
ssg71
g3672
sg64
(lp3679
S'last_name'
p3680
asbag57
(g78
g59
NtRp3681
(dp3682
g62
(dp3683
g89
g90
ssg71
g3672
sg64
(lp3684
S':'
asbag57
(g78
g59
NtRp3685
(dp3686
g62
(dp3687
sg71
g3672
sg64
(lp3688
g57
(g58
g59
NtRp3689
(dp3690
g62
(dp3691
g70
I3
ssg71
g3685
sg64
(lp3692
S'1'
asbasbasbag57
(g73
g59
NtRp3693
(dp3694
g62
(dp3695
sg71
g3603
sg64
(lp3696
g57
(g78
g59
NtRp3697
(dp3698
g62
(dp3699
g82
g83
ssg71
g3693
sg64
(lp3700
S'password'
p3701
asbag57
(g78
g59
NtRp3702
(dp3703
g62
(dp3704
g89
g90
ssg71
g3693
sg64
(lp3705
S':'
asbag57
(g78
g59
NtRp3706
(dp3707
g62
(dp3708
sg71
g3693
sg64
(lp3709
g57
(g58
g59
NtRp3710
(dp3711
g62
(dp3712
g70
I3
ssg71
g3706
sg64
(lp3713
S'21232f297a57a5a743894a0e4a801fc3'
p3714
asbasbasbag57
(g73
g59
NtRp3715
(dp3716
g62
(dp3717
sg71
g3603
sg64
(lp3718
g57
(g78
g59
NtRp3719
(dp3720
g62
(dp3721
g82
g83
ssg71
g3715
sg64
(lp3722
S'registration_id'
p3723
asbag57
(g78
g59
NtRp3724
(dp3725
g62
(dp3726
g89
g90
ssg71
g3715
sg64
(lp3727
S':'
asbag57
(g78
g59
NtRp3728
(dp3729
g62
(dp3730
sg71
g3715
sg64
(lp3731
g57
(g58
g59
NtRp3732
(dp3733
g62
(dp3734
g70
I3
ssg71
g3728
sg64
(lp3735
S''
asbasbasbag57
(g73
g59
NtRp3736
(dp3737
g62
(dp3738
sg71
g3603
sg64
(lp3739
g57
(g78
g59
NtRp3740
(dp3741
g62
(dp3742
g82
g83
ssg71
g3736
sg64
(lp3743
S'registration_key'
p3744
asbag57
(g78
g59
NtRp3745
(dp3746
g62
(dp3747
g89
g90
ssg71
g3736
sg64
(lp3748
S':'
asbag57
(g78
g59
NtRp3749
(dp3750
g62
(dp3751
sg71
g3736
sg64
(lp3752
g57
(g58
g59
NtRp3753
(dp3754
g62
(dp3755
g70
I3
ssg71
g3749
sg64
(lp3756
S''
asbasbasbag57
(g73
g59
NtRp3757
(dp3758
g62
(dp3759
sg71
g3603
sg64
(lp3760
g57
(g78
g59
NtRp3761
(dp3762
g62
(dp3763
g82
g83
ssg71
g3757
sg64
(lp3764
S'reset_password_key'
p3765
asbag57
(g78
g59
NtRp3766
(dp3767
g62
(dp3768
g89
g90
ssg71
g3757
sg64
(lp3769
S':'
asbag57
(g78
g59
NtRp3770
(dp3771
g62
(dp3772
sg71
g3757
sg64
(lp3773
g57
(g58
g59
NtRp3774
(dp3775
g62
(dp3776
g70
I3
ssg71
g3770
sg64
(lp3777
S''
asbasbasbasbasbasbasbag57
(g73
g59
NtRp3778
(dp3779
g62
(dp3780
sg71
g3491
sg64
(lp3781
g57
(g78
g59
NtRp3782
(dp3783
g62
(dp3784
g82
g83
ssg71
g3778
sg64
(lp3785
S'user_groups'
p3786
asbag57
(g78
g59
NtRp3787
(dp3788
g62
(dp3789
g89
g90
ssg71
g3778
sg64
(lp3790
S':'
asbag57
(g78
g59
NtRp3791
(dp3792
g62
(dp3793
sg71
g3778
sg64
(lp3794
g57
(g58
g59
NtRp3795
(dp3796
g62
(dp3797
g70
I4
ssg71
g3791
sg64
(lp3798
g57
(g66
g59
NtRp3799
(dp3800
g62
(dp3801
g70
I3
ssg71
Nsg64
(lp3802
g57
(g73
g59
NtRp3803
(dp3804
g62
(dp3805
sg71
g3799
sg64
(lp3806
g57
(g78
g59
NtRp3807
(dp3808
g62
(dp3809
g82
g83
ssg71
g3803
sg64
(lp3810
S'4'
asbag57
(g78
g59
NtRp3811
(dp3812
g62
(dp3813
g89
g90
ssg71
g3803
sg64
(lp3814
S':'
asbag57
(g78
g59
NtRp3815
(dp3816
g62
(dp3817
sg71
g3803
sg64
(lp3818
g57
(g58
g59
NtRp3819
(dp3820
g62
(dp3821
g70
I3
ssg71
g3815
sg64
(lp3822
S'user_4'
p3823
asbasbasbag57
(g73
g59
NtRp3824
(dp3825
g62
(dp3826
sg71
g3799
sg64
(lp3827
g57
(g78
g59
NtRp3828
(dp3829
g62
(dp3830
g82
g83
ssg71
g3824
sg64
(lp3831
S'5'
asbag57
(g78
g59
NtRp3832
(dp3833
g62
(dp3834
g89
g90
ssg71
g3824
sg64
(lp3835
S':'
asbag57
(g78
g59
NtRp3836
(dp3837
g62
(dp3838
sg71
g3824
sg64
(lp3839
g57
(g58
g59
NtRp3840
(dp3841
g62
(dp3842
g70
I3
ssg71
g3836
sg64
(lp3843
S'Admin'
p3844
asbasbasbasbasbasbasbasbasbasbasbasbasbsS'etype'
p3845
S"<type 'exceptions.AttributeError'>"
p3846
sS'date'
p3847
S'Tue Sep 11 17:57:09 2012'
p3848
sS'response'
p3849
g57
(g58
g59
NtRp3850
(dp3851
g62
(dp3852
sg64
(lp3853
g57
(g66
g59
NtRp3854
(dp3855
g62
(dp3856
g70
I5
ssg71
Nsg64
(lp3857
g57
(g73
g59
NtRp3858
(dp3859
g62
(dp3860
sg71
g3854
sg64
(lp3861
g57
(g78
g59
NtRp3862
(dp3863
g62
(dp3864
g82
g83
ssg71
g3858
sg64
(lp3865
g168
asbag57
(g78
g59
NtRp3866
(dp3867
g62
(dp3868
g89
g90
ssg71
g3858
sg64
(lp3869
S':'
asbag57
(g78
g59
NtRp3870
(dp3871
g62
(dp3872
sg71
g3858
sg64
(lp3873
g57
(g58
g59
NtRp3874
(dp3875
g62
(dp3876
g70
I5
ssg71
g3870
sg64
(lp3877
S'<cStringIO.StringO object at 0xaee5c360>'
p3878
asbasbasbag57
(g73
g59
NtRp3879
(dp3880
g62
(dp3881
sg71
g3854
sg64
(lp3882
g57
(g78
g59
NtRp3883
(dp3884
g62
(dp3885
g82
g83
ssg71
g3879
sg64
(lp3886
g234
asbag57
(g78
g59
NtRp3887
(dp3888
g62
(dp3889
g89
g90
ssg71
g3879
sg64
(lp3890
S':'
asbag57
(g78
g59
NtRp3891
(dp3892
g62
(dp3893
sg71
g3879
sg64
(lp3894
g57
(g58
g59
NtRp3895
(dp3896
g62
(dp3897
g70
I5
ssg71
g3891
sg64
(lp3898
g57
(g66
g59
NtRp3899
(dp3900
g62
(dp3901
g70
I4
ssg71
Nsg64
(lp3902
g57
(g73
g59
NtRp3903
(dp3904
g62
(dp3905
sg71
g3899
sg64
(lp3906
g57
(g78
g59
NtRp3907
(dp3908
g62
(dp3909
g82
g83
ssg71
g3903
sg64
(lp3910
S'session_id_just_click_'
p3911
asbag57
(g78
g59
NtRp3912
(dp3913
g62
(dp3914
g89
g90
ssg71
g3903
sg64
(lp3915
S':'
asbag57
(g78
g59
NtRp3916
(dp3917
g62
(dp3918
sg71
g3903
sg64
(lp3919
g57
(g58
g59
NtRp3920
(dp3921
g62
(dp3922
g70
I4
ssg71
g3916
sg64
(lp3923
g57
(g66
g59
NtRp3924
(dp3925
g62
(dp3926
g70
I3
ssg71
Nsg64
(lp3927
g57
(g73
g59
NtRp3928
(dp3929
g62
(dp3930
sg71
g3924
sg64
(lp3931
g57
(g78
g59
NtRp3932
(dp3933
g62
(dp3934
g82
g83
ssg71
g3928
sg64
(lp3935
g284
asbag57
(g78
g59
NtRp3936
(dp3937
g62
(dp3938
g89
g90
ssg71
g3928
sg64
(lp3939
S':'
asbag57
(g78
g59
NtRp3940
(dp3941
g62
(dp3942
sg71
g3928
sg64
(lp3943
g57
(g58
g59
NtRp3944
(dp3945
g62
(dp3946
g70
I3
ssg71
g3940
sg64
(lp3947
S''
asbasbasbag57
(g73
g59
NtRp3948
(dp3949
g62
(dp3950
sg71
g3924
sg64
(lp3951
g57
(g78
g59
NtRp3952
(dp3953
g62
(dp3954
g82
g83
ssg71
g3948
sg64
(lp3955
g305
asbag57
(g78
g59
NtRp3956
(dp3957
g62
(dp3958
g89
g90
ssg71
g3948
sg64
(lp3959
S':'
asbag57
(g78
g59
NtRp3960
(dp3961
g62
(dp3962
sg71
g3948
sg64
(lp3963
g57
(g58
g59
NtRp3964
(dp3965
g62
(dp3966
g70
I3
ssg71
g3960
sg64
(lp3967
S''
asbasbasbag57
(g73
g59
NtRp3968
(dp3969
g62
(dp3970
sg71
g3924
sg64
(lp3971
g57
(g78
g59
NtRp3972
(dp3973
g62
(dp3974
g82
g83
ssg71
g3968
sg64
(lp3975
g326
asbag57
(g78
g59
NtRp3976
(dp3977
g62
(dp3978
g89
g90
ssg71
g3968
sg64
(lp3979
S':'
asbag57
(g78
g59
NtRp3980
(dp3981
g62
(dp3982
sg71
g3968
sg64
(lp3983
g57
(g58
g59
NtRp3984
(dp3985
g62
(dp3986
g70
I3
ssg71
g3980
sg64
(lp3987
S''
asbasbasbag57
(g73
g59
NtRp3988
(dp3989
g62
(dp3990
sg71
g3924
sg64
(lp3991
g57
(g78
g59
NtRp3992
(dp3993
g62
(dp3994
g82
g83
ssg71
g3988
sg64
(lp3995
g347
asbag57
(g78
g59
NtRp3996
(dp3997
g62
(dp3998
g89
g90
ssg71
g3988
sg64
(lp3999
S':'
asbag57
(g78
g59
NtRp4000
(dp4001
g62
(dp4002
sg71
g3988
sg64
(lp4003
g57
(g58
g59
NtRp4004
(dp4005
g62
(dp4006
g70
I3
ssg71
g4000
sg64
(lp4007
S''
asbasbasbag57
(g73
g59
NtRp4008
(dp4009
g62
(dp4010
sg71
g3924
sg64
(lp4011
g57
(g78
g59
NtRp4012
(dp4013
g62
(dp4014
g82
g83
ssg71
g4008
sg64
(lp4015
g368
asbag57
(g78
g59
NtRp4016
(dp4017
g62
(dp4018
g89
g90
ssg71
g4008
sg64
(lp4019
S':'
asbag57
(g78
g59
NtRp4020
(dp4021
g62
(dp4022
sg71
g4008
sg64
(lp4023
g57
(g58
g59
NtRp4024
(dp4025
g62
(dp4026
g70
I3
ssg71
g4020
sg64
(lp4027
S''
asbasbasbag57
(g73
g59
NtRp4028
(dp4029
g62
(dp4030
sg71
g3924
sg64
(lp4031
g57
(g78
g59
NtRp4032
(dp4033
g62
(dp4034
g82
g83
ssg71
g4028
sg64
(lp4035
g389
asbag57
(g78
g59
NtRp4036
(dp4037
g62
(dp4038
g89
g90
ssg71
g4028
sg64
(lp4039
S':'
asbag57
(g78
g59
NtRp4040
(dp4041
g62
(dp4042
sg71
g4028
sg64
(lp4043
g57
(g58
g59
NtRp4044
(dp4045
g62
(dp4046
g70
I3
ssg71
g4040
sg64
(lp4047
S'/'
asbasbasbag57
(g73
g59
NtRp4048
(dp4049
g62
(dp4050
sg71
g3924
sg64
(lp4051
g57
(g78
g59
NtRp4052
(dp4053
g62
(dp4054
g82
g83
ssg71
g4048
sg64
(lp4055
g410
asbag57
(g78
g59
NtRp4056
(dp4057
g62
(dp4058
g89
g90
ssg71
g4048
sg64
(lp4059
S':'
asbag57
(g78
g59
NtRp4060
(dp4061
g62
(dp4062
sg71
g4048
sg64
(lp4063
g57
(g58
g59
NtRp4064
(dp4065
g62
(dp4066
g70
I3
ssg71
g4060
sg64
(lp4067
S''
asbasbasbag57
(g73
g59
NtRp4068
(dp4069
g62
(dp4070
sg71
g3924
sg64
(lp4071
g57
(g78
g59
NtRp4072
(dp4073
g62
(dp4074
g82
g83
ssg71
g4068
sg64
(lp4075
g431
asbag57
(g78
g59
NtRp4076
(dp4077
g62
(dp4078
g89
g90
ssg71
g4068
sg64
(lp4079
S':'
asbag57
(g78
g59
NtRp4080
(dp4081
g62
(dp4082
sg71
g4068
sg64
(lp4083
g57
(g58
g59
NtRp4084
(dp4085
g62
(dp4086
g70
I3
ssg71
g4080
sg64
(lp4087
S''
asbasbasbasbasbasbasbasbasbasbasbag57
(g73
g59
NtRp4088
(dp4089
g62
(dp4090
sg71
g3854
sg64
(lp4091
g57
(g78
g59
NtRp4092
(dp4093
g62
(dp4094
g82
g83
ssg71
g4088
sg64
(lp4095
S'delimiters'
p4096
asbag57
(g78
g59
NtRp4097
(dp4098
g62
(dp4099
g89
g90
ssg71
g4088
sg64
(lp4100
S':'
asbag57
(g78
g59
NtRp4101
(dp4102
g62
(dp4103
sg71
g4088
sg64
(lp4104
g57
(g58
g59
NtRp4105
(dp4106
g62
(dp4107
g70
I5
ssg71
g4101
sg64
(lp4108
g57
(g66
g59
NtRp4109
(dp4110
g62
(dp4111
g70
I4
ssg71
Nsg64
(lp4112
g57
(g73
g59
NtRp4113
(dp4114
g62
(dp4115
sg71
g4109
sg64
(lp4116
g57
(g78
g59
NtRp4117
(dp4118
g62
(dp4119
sg71
g4113
sg64
(lp4120
g57
(g58
g59
NtRp4121
(dp4122
g62
(dp4123
g70
I4
ssg71
g4117
sg64
(lp4124
S'{{'
p4125
asbasbasbag57
(g73
g59
NtRp4126
(dp4127
g62
(dp4128
sg71
g4109
sg64
(lp4129
g57
(g78
g59
NtRp4130
(dp4131
g62
(dp4132
sg71
g4126
sg64
(lp4133
g57
(g58
g59
NtRp4134
(dp4135
g62
(dp4136
g70
I4
ssg71
g4130
sg64
(lp4137
S'}}'
p4138
asbasbasbasbasbasbasbag57
(g73
g59
NtRp4139
(dp4140
g62
(dp4141
sg71
g3854
sg64
(lp4142
g57
(g78
g59
NtRp4143
(dp4144
g62
(dp4145
g82
g83
ssg71
g4139
sg64
(lp4146
S'files'
p4147
asbag57
(g78
g59
NtRp4148
(dp4149
g62
(dp4150
g89
g90
ssg71
g4139
sg64
(lp4151
S':'
asbag57
(g78
g59
NtRp4152
(dp4153
g62
(dp4154
sg71
g4139
sg64
(lp4155
g57
(g58
g59
NtRp4156
(dp4157
g62
(dp4158
g70
I5
ssg71
g4152
sg64
(lp4159
g57
(g66
g59
NtRp4160
(dp4161
g62
(dp4162
g70
I4
ssg71
Nsg64
(lp4163
g57
(g73
g59
NtRp4164
(dp4165
g62
(dp4166
sg71
g4160
sg64
(lp4167
g57
(g78
g59
NtRp4168
(dp4169
g62
(dp4170
sg71
g4164
sg64
(lp4171
g57
(g58
g59
NtRp4172
(dp4173
g62
(dp4174
g70
I4
ssg71
g4168
sg64
(lp4175
S'/Just_Click_/static/js/jquery.js'
p4176
asbasbasbag57
(g73
g59
NtRp4177
(dp4178
g62
(dp4179
sg71
g4160
sg64
(lp4180
g57
(g78
g59
NtRp4181
(dp4182
g62
(dp4183
sg71
g4177
sg64
(lp4184
g57
(g58
g59
NtRp4185
(dp4186
g62
(dp4187
g70
I4
ssg71
g4181
sg64
(lp4188
S'/Just_Click_/static/css/calendar.css'
p4189
asbasbasbag57
(g73
g59
NtRp4190
(dp4191
g62
(dp4192
sg71
g4160
sg64
(lp4193
g57
(g78
g59
NtRp4194
(dp4195
g62
(dp4196
sg71
g4190
sg64
(lp4197
g57
(g58
g59
NtRp4198
(dp4199
g62
(dp4200
g70
I4
ssg71
g4194
sg64
(lp4201
S'/Just_Click_/static/js/calendar.js'
p4202
asbasbasbag57
(g73
g59
NtRp4203
(dp4204
g62
(dp4205
sg71
g4160
sg64
(lp4206
g57
(g78
g59
NtRp4207
(dp4208
g62
(dp4209
sg71
g4203
sg64
(lp4210
g57
(g58
g59
NtRp4211
(dp4212
g62
(dp4213
g70
I4
ssg71
g4207
sg64
(lp4214
S'/Just_Click_/static/js/web2py.js'
p4215
asbasbasbag57
(g73
g59
NtRp4216
(dp4217
g62
(dp4218
sg71
g4160
sg64
(lp4219
g57
(g78
g59
NtRp4220
(dp4221
g62
(dp4222
sg71
g4216
sg64
(lp4223
g57
(g58
g59
NtRp4224
(dp4225
g62
(dp4226
g70
I4
ssg71
g4220
sg64
(lp4227
S'/Just_Click_/static/css/skeleton.css'
p4228
asbasbasbag57
(g73
g59
NtRp4229
(dp4230
g62
(dp4231
sg71
g4160
sg64
(lp4232
g57
(g78
g59
NtRp4233
(dp4234
g62
(dp4235
sg71
g4229
sg64
(lp4236
g57
(g58
g59
NtRp4237
(dp4238
g62
(dp4239
g70
I4
ssg71
g4233
sg64
(lp4240
S'/Just_Click_/static/css/web2py.css'
p4241
asbasbasbag57
(g73
g59
NtRp4242
(dp4243
g62
(dp4244
sg71
g4160
sg64
(lp4245
g57
(g78
g59
NtRp4246
(dp4247
g62
(dp4248
sg71
g4242
sg64
(lp4249
g57
(g58
g59
NtRp4250
(dp4251
g62
(dp4252
g70
I4
ssg71
g4246
sg64
(lp4253
S'/Just_Click_/static/css/superfish.css'
p4254
asbasbasbag57
(g73
g59
NtRp4255
(dp4256
g62
(dp4257
sg71
g4160
sg64
(lp4258
g57
(g78
g59
NtRp4259
(dp4260
g62
(dp4261
sg71
g4255
sg64
(lp4262
g57
(g58
g59
NtRp4263
(dp4264
g62
(dp4265
g70
I4
ssg71
g4259
sg64
(lp4266
S'/Just_Click_/static/js/superfish.js'
p4267
asbasbasbasbasbasbasbag57
(g73
g59
NtRp4268
(dp4269
g62
(dp4270
sg71
g3854
sg64
(lp4271
g57
(g78
g59
NtRp4272
(dp4273
g62
(dp4274
g82
g83
ssg71
g4268
sg64
(lp4275
S'flash'
p4276
asbag57
(g78
g59
NtRp4277
(dp4278
g62
(dp4279
g89
g90
ssg71
g4268
sg64
(lp4280
S':'
asbag57
(g78
g59
NtRp4281
(dp4282
g62
(dp4283
sg71
g4268
sg64
(lp4284
g57
(g58
g59
NtRp4285
(dp4286
g62
(dp4287
g70
I5
ssg71
g4281
sg64
(lp4288
S''
asbasbasbag57
(g73
g59
NtRp4289
(dp4290
g62
(dp4291
sg71
g3854
sg64
(lp4292
g57
(g78
g59
NtRp4293
(dp4294
g62
(dp4295
g82
g83
ssg71
g4289
sg64
(lp4296
S'generic_patterns'
p4297
asbag57
(g78
g59
NtRp4298
(dp4299
g62
(dp4300
g89
g90
ssg71
g4289
sg64
(lp4301
S':'
asbag57
(g78
g59
NtRp4302
(dp4303
g62
(dp4304
sg71
g4289
sg64
(lp4305
g57
(g58
g59
NtRp4306
(dp4307
g62
(dp4308
g70
I5
ssg71
g4302
sg64
(lp4309
g57
(g66
g59
NtRp4310
(dp4311
g62
(dp4312
g70
I4
ssg71
Nsg64
(lp4313
sbasbasbasbag57
(g73
g59
NtRp4314
(dp4315
g62
(dp4316
sg71
g3854
sg64
(lp4317
g57
(g78
g59
NtRp4318
(dp4319
g62
(dp4320
g82
g83
ssg71
g4314
sg64
(lp4321
S'headers'
p4322
asbag57
(g78
g59
NtRp4323
(dp4324
g62
(dp4325
g89
g90
ssg71
g4314
sg64
(lp4326
S':'
asbag57
(g78
g59
NtRp4327
(dp4328
g62
(dp4329
sg71
g4314
sg64
(lp4330
g57
(g58
g59
NtRp4331
(dp4332
g62
(dp4333
g70
I5
ssg71
g4327
sg64
(lp4334
g57
(g66
g59
NtRp4335
(dp4336
g62
(dp4337
g70
I4
ssg71
Nsg64
(lp4338
g57
(g73
g59
NtRp4339
(dp4340
g62
(dp4341
sg71
g4335
sg64
(lp4342
g57
(g78
g59
NtRp4343
(dp4344
g62
(dp4345
g82
g83
ssg71
g4339
sg64
(lp4346
S'Cache-Control'
p4347
asbag57
(g78
g59
NtRp4348
(dp4349
g62
(dp4350
g89
g90
ssg71
g4339
sg64
(lp4351
S':'
asbag57
(g78
g59
NtRp4352
(dp4353
g62
(dp4354
sg71
g4339
sg64
(lp4355
g57
(g58
g59
NtRp4356
(dp4357
g62
(dp4358
g70
I4
ssg71
g4352
sg64
(lp4359
S'no-store, no-cache, must-revalidate, post-check=0, pre-check=0'
p4360
asbasbasbag57
(g73
g59
NtRp4361
(dp4362
g62
(dp4363
sg71
g4335
sg64
(lp4364
g57
(g78
g59
NtRp4365
(dp4366
g62
(dp4367
g82
g83
ssg71
g4361
sg64
(lp4368
S'Content-Type'
p4369
asbag57
(g78
g59
NtRp4370
(dp4371
g62
(dp4372
g89
g90
ssg71
g4361
sg64
(lp4373
S':'
asbag57
(g78
g59
NtRp4374
(dp4375
g62
(dp4376
sg71
g4361
sg64
(lp4377
g57
(g58
g59
NtRp4378
(dp4379
g62
(dp4380
g70
I4
ssg71
g4374
sg64
(lp4381
S'text/html; charset=utf-8'
p4382
asbasbasbag57
(g73
g59
NtRp4383
(dp4384
g62
(dp4385
sg71
g4335
sg64
(lp4386
g57
(g78
g59
NtRp4387
(dp4388
g62
(dp4389
g82
g83
ssg71
g4383
sg64
(lp4390
S'Expires'
p4391
asbag57
(g78
g59
NtRp4392
(dp4393
g62
(dp4394
g89
g90
ssg71
g4383
sg64
(lp4395
S':'
asbag57
(g78
g59
NtRp4396
(dp4397
g62
(dp4398
sg71
g4383
sg64
(lp4399
g57
(g58
g59
NtRp4400
(dp4401
g62
(dp4402
g70
I4
ssg71
g4396
sg64
(lp4403
S'Tue, 11 Sep 2012 12:27:09 GMT'
p4404
asbasbasbag57
(g73
g59
NtRp4405
(dp4406
g62
(dp4407
sg71
g4335
sg64
(lp4408
g57
(g78
g59
NtRp4409
(dp4410
g62
(dp4411
g82
g83
ssg71
g4405
sg64
(lp4412
S'Pragma'
p4413
asbag57
(g78
g59
NtRp4414
(dp4415
g62
(dp4416
g89
g90
ssg71
g4405
sg64
(lp4417
S':'
asbag57
(g78
g59
NtRp4418
(dp4419
g62
(dp4420
sg71
g4405
sg64
(lp4421
g57
(g58
g59
NtRp4422
(dp4423
g62
(dp4424
g70
I4
ssg71
g4418
sg64
(lp4425
S'no-cache'
p4426
asbasbasbag57
(g73
g59
NtRp4427
(dp4428
g62
(dp4429
sg71
g4335
sg64
(lp4430
g57
(g78
g59
NtRp4431
(dp4432
g62
(dp4433
g82
g83
ssg71
g4427
sg64
(lp4434
S'X-Powered-By'
p4435
asbag57
(g78
g59
NtRp4436
(dp4437
g62
(dp4438
g89
g90
ssg71
g4427
sg64
(lp4439
S':'
asbag57
(g78
g59
NtRp4440
(dp4441
g62
(dp4442
sg71
g4427
sg64
(lp4443
g57
(g58
g59
NtRp4444
(dp4445
g62
(dp4446
g70
I4
ssg71
g4440
sg64
(lp4447
S'web2py'
p4448
asbasbasbasbasbasbasbag57
(g73
g59
NtRp4449
(dp4450
g62
(dp4451
sg71
g3854
sg64
(lp4452
g57
(g78
g59
NtRp4453
(dp4454
g62
(dp4455
g82
g83
ssg71
g4449
sg64
(lp4456
S'menu'
p4457
asbag57
(g78
g59
NtRp4458
(dp4459
g62
(dp4460
g89
g90
ssg71
g4449
sg64
(lp4461
S':'
asbag57
(g78
g59
NtRp4462
(dp4463
g62
(dp4464
sg71
g4449
sg64
(lp4465
g57
(g58
g59
NtRp4466
(dp4467
g62
(dp4468
g70
I5
ssg71
g4462
sg64
(lp4469
g57
(g66
g59
NtRp4470
(dp4471
g62
(dp4472
g70
I4
ssg71
Nsg64
(lp4473
g57
(g73
g59
NtRp4474
(dp4475
g62
(dp4476
sg71
g4470
sg64
(lp4477
g57
(g78
g59
NtRp4478
(dp4479
g62
(dp4480
sg71
g4474
sg64
(lp4481
g57
(g58
g59
NtRp4482
(dp4483
g62
(dp4484
g70
I4
ssg71
g4478
sg64
(lp4485
g57
(g66
g59
NtRp4486
(dp4487
g62
(dp4488
g70
I3
ssg71
Nsg64
(lp4489
g57
(g73
g59
NtRp4490
(dp4491
g62
(dp4492
sg71
g4486
sg64
(lp4493
g57
(g78
g59
NtRp4494
(dp4495
g62
(dp4496
sg71
g4490
sg64
(lp4497
g57
(g58
g59
NtRp4498
(dp4499
g62
(dp4500
g70
I3
ssg71
g4494
sg64
(lp4501
cgluon.languages
lazyT_unpickle
p4502
(S't\x04\x00\x00\x00Home'
tRp4503
asbasbasbag57
(g73
g59
NtRp4504
(dp4505
g62
(dp4506
sg71
g4486
sg64
(lp4507
g57
(g78
g59
NtRp4508
(dp4509
g62
(dp4510
sg71
g4504
sg64
(lp4511
g57
(g58
g59
NtRp4512
(dp4513
g62
(dp4514
g70
I3
ssg71
g4508
sg64
(lp4515
g100
asbasbasbag57
(g73
g59
NtRp4516
(dp4517
g62
(dp4518
sg71
g4486
sg64
(lp4519
g57
(g78
g59
NtRp4520
(dp4521
g62
(dp4522
sg71
g4516
sg64
(lp4523
g57
(g58
g59
NtRp4524
(dp4525
g62
(dp4526
g70
I3
ssg71
g4520
sg64
(lp4527
S'/Just_Click_/default/index'
p4528
asbasbasbag57
(g73
g59
NtRp4529
(dp4530
g62
(dp4531
sg71
g4486
sg64
(lp4532
g57
(g78
g59
NtRp4533
(dp4534
g62
(dp4535
sg71
g4529
sg64
(lp4536
g57
(g58
g59
NtRp4537
(dp4538
g62
(dp4539
g70
I3
ssg71
g4533
sg64
(lp4540
g57
(g66
g59
NtRp4541
(dp4542
g62
(dp4543
g70
I2
ssg71
Nsg64
(lp4544
sbasbasbasbasbasbasbasbag57
(g73
g59
NtRp4545
(dp4546
g62
(dp4547
sg71
g4470
sg64
(lp4548
g57
(g78
g59
NtRp4549
(dp4550
g62
(dp4551
sg71
g4545
sg64
(lp4552
g57
(g58
g59
NtRp4553
(dp4554
g62
(dp4555
g70
I4
ssg71
g4549
sg64
(lp4556
g57
(g66
g59
NtRp4557
(dp4558
g62
(dp4559
g70
I3
ssg71
Nsg64
(lp4560
g57
(g73
g59
NtRp4561
(dp4562
g62
(dp4563
sg71
g4557
sg64
(lp4564
g57
(g78
g59
NtRp4565
(dp4566
g62
(dp4567
sg71
g4561
sg64
(lp4568
g57
(g58
g59
NtRp4569
(dp4570
g62
(dp4571
g70
I3
ssg71
g4565
sg64
(lp4572
g57
(cgluon.html
SPAN
p4573
g59
NtRp4574
(dp4575
g62
(dp4576
g82
S'color:yellow'
p4577
ssg71
g57
(cgluon.html
A
p4578
g59
NtRp4579
(dp4580
g62
(dp4581
S'_onclick'
p4582
S'javascript:void(0);return false;'
p4583
sS'_href'
p4584
S'#'
ssg71
g57
(cgluon.html
LI
p4585
g59
NtRp4586
(dp4587
g62
(dp4588
S'_class'
p4589
S'web2py-menu-expand'
p4590
ssg71
g57
(cgluon.html
UL
p4591
g59
NtRp4592
(dp4593
g62
(dp4594
S'mobile'
p4595
I00
sS'li_class'
p4596
g4590
sg4589
S'sf-menu'
p4597
sS'ul_class'
p4598
S'web2py-menu-vertical'
p4599
sS'li_active'
p4600
S'web2py-menu-active'
p4601
ssg71
Nsg64
(lp4602
g57
(g4585
g59
NtRp4603
(dp4604
g62
(dp4605
sg71
g4592
sg64
(lp4606
g57
(g4578
g59
NtRp4607
(dp4608
g62
(dp4609
g4584
g4528
ssg71
g4603
sg64
(lp4610
g4503
asbasbag4586
asbsg64
(lp4611
g4579
ag57
(g4591
g59
NtRp4612
(dp4613
g62
(dp4614
g4589
g4599
ssg71
g4586
sg64
(lp4615
g57
(g4585
g59
NtRp4616
(dp4617
g62
(dp4618
sg71
g4612
sg64
(lp4619
g57
(g4578
g59
NtRp4620
(dp4621
g62
(dp4622
g4584
S'/admin/default/site'
p4623
ssg71
g4616
sg64
(lp4624
g4502
(S's\x08\x00\x00\x00My Sites'
tRp4625
asbasbag57
(g4585
g59
NtRp4626
(dp4627
g62
(dp4628
g4589
g4590
ssg71
g4612
sg64
(lp4629
g57
(g4578
g59
NtRp4630
(dp4631
g62
(dp4632
g4584
S'/admin/default/design/Just_Click_'
p4633
ssg71
g4626
sg64
(lp4634
g4502
(S's\x08\x00\x00\x00This App'
tRp4635
asbag57
(g4591
g59
NtRp4636
(dp4637
g62
(dp4638
g4589
g4599
ssg71
g4626
sg64
(lp4639
g57
(g4585
g59
NtRp4640
(dp4641
g62
(dp4642
sg71
g4636
sg64
(lp4643
g57
(g4578
g59
NtRp4644
(dp4645
g62
(dp4646
g4584
S'/admin/default/edit/Just_Click_/controllers/default.py'
p4647
ssg71
g4640
sg64
(lp4648
g4502
(S't\n\x00\x00\x00Controller'
tRp4649
asbasbag57
(g4585
g59
NtRp4650
(dp4651
g62
(dp4652
sg71
g4636
sg64
(lp4653
g57
(g4578
g59
NtRp4654
(dp4655
g62
(dp4656
g4584
S'/admin/default/edit/Just_Click_/views/default/show.html'
p4657
ssg71
g4650
sg64
(lp4658
g4502
(S't\x04\x00\x00\x00View'
tRp4659
asbasbag57
(g4585
g59
NtRp4660
(dp4661
g62
(dp4662
sg71
g4636
sg64
(lp4663
g57
(g4578
g59
NtRp4664
(dp4665
g62
(dp4666
g4584
S'/admin/default/edit/Just_Click_/views/layout.html'
p4667
ssg71
g4660
sg64
(lp4668
g4502
(S't\x06\x00\x00\x00Layout'
tRp4669
asbasbag57
(g4585
g59
NtRp4670
(dp4671
g62
(dp4672
sg71
g4636
sg64
(lp4673
g57
(g4578
g59
NtRp4674
(dp4675
g62
(dp4676
g4584
S'/admin/default/edit/Just_Click_/static/css/web2py.css'
p4677
ssg71
g4670
sg64
(lp4678
g4502
(S't\n\x00\x00\x00Stylesheet'
tRp4679
asbasbag57
(g4585
g59
NtRp4680
(dp4681
g62
(dp4682
sg71
g4636
sg64
(lp4683
g57
(g4578
g59
NtRp4684
(dp4685
g62
(dp4686
g4584
S'/admin/default/edit/Just_Click_/models/db.py'
p4687
ssg71
g4680
sg64
(lp4688
g4502
(S's\x08\x00\x00\x00DB Model'
tRp4689
asbasbag57
(g4585
g59
NtRp4690
(dp4691
g62
(dp4692
sg71
g4636
sg64
(lp4693
g57
(g4578
g59
NtRp4694
(dp4695
g62
(dp4696
g4584
S'/admin/default/edit/Just_Click_/models/menu.py'
p4697
ssg71
g4690
sg64
(lp4698
g4502
(S's\n\x00\x00\x00Menu Model'
tRp4699
asbasbag57
(g4585
g59
NtRp4700
(dp4701
g62
(dp4702
sg71
g4636
sg64
(lp4703
g57
(g4578
g59
NtRp4704
(dp4705
g62
(dp4706
g4584
S'/Just_Click_/appadmin/index'
p4707
ssg71
g4700
sg64
(lp4708
g4502
(S't\x08\x00\x00\x00Database'
tRp4709
asbasbag57
(g4585
g59
NtRp4710
(dp4711
g62
(dp4712
sg71
g4636
sg64
(lp4713
g57
(g4578
g59
NtRp4714
(dp4715
g62
(dp4716
g4584
S'/admin/default/errors/Just_Click_'
p4717
ssg71
g4710
sg64
(lp4718
g4502
(S't\x06\x00\x00\x00Errors'
tRp4719
asbasbag57
(g4585
g59
NtRp4720
(dp4721
g62
(dp4722
sg71
g4636
sg64
(lp4723
g57
(g4578
g59
NtRp4724
(dp4725
g62
(dp4726
g4584
S'/admin/default/about/Just_Click_'
p4727
ssg71
g4720
sg64
(lp4728
g4502
(S't\x05\x00\x00\x00About'
tRp4729
asbasbasbasbag57
(g4585
g59
NtRp4730
(dp4731
g62
(dp4732
g4589
g4590
ssg71
g4612
sg64
(lp4733
g57
(g4578
g59
NtRp4734
(dp4735
g62
(dp4736
g4584
S'http://www.web2py.com'
p4737
ssg71
g4730
sg64
(lp4738
S'web2py.com'
p4739
asbag57
(g4591
g59
NtRp4740
(dp4741
g62
(dp4742
g4589
g4599
ssg71
g4730
sg64
(lp4743
g57
(g4585
g59
NtRp4744
(dp4745
g62
(dp4746
sg71
g4740
sg64
(lp4747
g57
(g4578
g59
NtRp4748
(dp4749
g62
(dp4750
g4584
S'http://www.web2py.com/examples/default/download'
p4751
ssg71
g4744
sg64
(lp4752
g4502
(S't\x08\x00\x00\x00Download'
tRp4753
asbasbag57
(g4585
g59
NtRp4754
(dp4755
g62
(dp4756
sg71
g4740
sg64
(lp4757
g57
(g4578
g59
NtRp4758
(dp4759
g62
(dp4760
g4584
S'http://www.web2py.com/examples/default/support'
p4761
ssg71
g4754
sg64
(lp4762
g4502
(S't\x07\x00\x00\x00Support'
tRp4763
asbasbag57
(g4585
g59
NtRp4764
(dp4765
g62
(dp4766
sg71
g4740
sg64
(lp4767
g57
(g4578
g59
NtRp4768
(dp4769
g62
(dp4770
g4584
S'http://web2py.com/demo_admin'
p4771
ssg71
g4764
sg64
(lp4772
g4502
(S't\x04\x00\x00\x00Demo'
tRp4773
asbasbag57
(g4585
g59
NtRp4774
(dp4775
g62
(dp4776
sg71
g4740
sg64
(lp4777
g57
(g4578
g59
NtRp4778
(dp4779
g62
(dp4780
g4584
S'http://web2py.com/examples/default/examples'
p4781
ssg71
g4774
sg64
(lp4782
g4502
(S's\x0e\x00\x00\x00Quick Examples'
tRp4783
asbasbag57
(g4585
g59
NtRp4784
(dp4785
g62
(dp4786
sg71
g4740
sg64
(lp4787
g57
(g4578
g59
NtRp4788
(dp4789
g62
(dp4790
g4584
S'http://web2py.com/AlterEgo'
p4791
ssg71
g4784
sg64
(lp4792
g4502
(S't\x03\x00\x00\x00FAQ'
tRp4793
asbasbag57
(g4585
g59
NtRp4794
(dp4795
g62
(dp4796
sg71
g4740
sg64
(lp4797
g57
(g4578
g59
NtRp4798
(dp4799
g62
(dp4800
g4584
S'http://www.web2py.com/examples/default/videos/'
p4801
ssg71
g4794
sg64
(lp4802
g4502
(S't\x06\x00\x00\x00Videos'
tRp4803
asbasbag57
(g4585
g59
NtRp4804
(dp4805
g62
(dp4806
sg71
g4740
sg64
(lp4807
g57
(g4578
g59
NtRp4808
(dp4809
g62
(dp4810
g4584
S'http://web2py.com/appliances'
p4811
ssg71
g4804
sg64
(lp4812
g4502
(S's\x11\x00\x00\x00Free Applications'
tRp4813
asbasbag57
(g4585
g59
NtRp4814
(dp4815
g62
(dp4816
sg71
g4740
sg64
(lp4817
g57
(g4578
g59
NtRp4818
(dp4819
g62
(dp4820
g4584
S'http://web2py.com/plugins'
p4821
ssg71
g4814
sg64
(lp4822
g4502
(S't\x07\x00\x00\x00Plugins'
tRp4823
asbasbag57
(g4585
g59
NtRp4824
(dp4825
g62
(dp4826
sg71
g4740
sg64
(lp4827
g57
(g4578
g59
NtRp4828
(dp4829
g62
(dp4830
g4584
S'http://web2py.com/layouts'
p4831
ssg71
g4824
sg64
(lp4832
g4502
(S't\x07\x00\x00\x00Layouts'
tRp4833
asbasbag57
(g4585
g59
NtRp4834
(dp4835
g62
(dp4836
sg71
g4740
sg64
(lp4837
g57
(g4578
g59
NtRp4838
(dp4839
g62
(dp4840
g4584
S'http://web2pyslices.com/'
p4841
ssg71
g4834
sg64
(lp4842
g4502
(S't\x07\x00\x00\x00Recipes'
tRp4843
asbasbag57
(g4585
g59
NtRp4844
(dp4845
g62
(dp4846
sg71
g4740
sg64
(lp4847
g57
(g4578
g59
NtRp4848
(dp4849
g62
(dp4850
g4584
S'http://web2py.com/semantic'
p4851
ssg71
g4844
sg64
(lp4852
g4502
(S't\x08\x00\x00\x00Semantic'
tRp4853
asbasbasbasbag57
(g4585
g59
NtRp4854
(dp4855
g62
(dp4856
g4589
g4590
ssg71
g4612
sg64
(lp4857
g57
(g4578
g59
NtRp4858
(dp4859
g62
(dp4860
g4584
S'http://www.web2py.com/book'
p4861
ssg71
g4854
sg64
(lp4862
g4502
(S't\r\x00\x00\x00Documentation'
tRp4863
asbag57
(g4591
g59
NtRp4864
(dp4865
g62
(dp4866
g4589
g4599
ssg71
g4854
sg64
(lp4867
g57
(g4585
g59
NtRp4868
(dp4869
g62
(dp4870
sg71
g4864
sg64
(lp4871
g57
(g4578
g59
NtRp4872
(dp4873
g62
(dp4874
g4584
S'http://www.web2py.com/book/default/chapter/00'
p4875
ssg71
g4868
sg64
(lp4876
g4502
(S't\x07\x00\x00\x00Preface'
tRp4877
asbasbag57
(g4585
g59
NtRp4878
(dp4879
g62
(dp4880
sg71
g4864
sg64
(lp4881
g57
(g4578
g59
NtRp4882
(dp4883
g62
(dp4884
g4584
S'http://www.web2py.com/book/default/chapter/01'
p4885
ssg71
g4878
sg64
(lp4886
g4502
(S't\x0c\x00\x00\x00Introduction'
tRp4887
asbasbag57
(g4585
g59
NtRp4888
(dp4889
g62
(dp4890
sg71
g4864
sg64
(lp4891
g57
(g4578
g59
NtRp4892
(dp4893
g62
(dp4894
g4584
S'http://www.web2py.com/book/default/chapter/02'
p4895
ssg71
g4888
sg64
(lp4896
g4502
(S't\x06\x00\x00\x00Python'
tRp4897
asbasbag57
(g4585
g59
NtRp4898
(dp4899
g62
(dp4900
sg71
g4864
sg64
(lp4901
g57
(g4578
g59
NtRp4902
(dp4903
g62
(dp4904
g4584
S'http://www.web2py.com/book/default/chapter/03'
p4905
ssg71
g4898
sg64
(lp4906
g4502
(S't\x08\x00\x00\x00Overview'
tRp4907
asbasbag57
(g4585
g59
NtRp4908
(dp4909
g62
(dp4910
sg71
g4864
sg64
(lp4911
g57
(g4578
g59
NtRp4912
(dp4913
g62
(dp4914
g4584
S'http://www.web2py.com/book/default/chapter/04'
p4915
ssg71
g4908
sg64
(lp4916
g4502
(S's\x08\x00\x00\x00The Core'
tRp4917
asbasbag57
(g4585
g59
NtRp4918
(dp4919
g62
(dp4920
sg71
g4864
sg64
(lp4921
g57
(g4578
g59
NtRp4922
(dp4923
g62
(dp4924
g4584
S'http://www.web2py.com/book/default/chapter/05'
p4925
ssg71
g4918
sg64
(lp4926
g4502
(S's\t\x00\x00\x00The Views'
tRp4927
asbasbag57
(g4585
g59
NtRp4928
(dp4929
g62
(dp4930
sg71
g4864
sg64
(lp4931
g57
(g4578
g59
NtRp4932
(dp4933
g62
(dp4934
g4584
S'http://www.web2py.com/book/default/chapter/06'
p4935
ssg71
g4928
sg64
(lp4936
g4502
(S't\x08\x00\x00\x00Database'
tRp4937
asbasbag57
(g4585
g59
NtRp4938
(dp4939
g62
(dp4940
sg71
g4864
sg64
(lp4941
g57
(g4578
g59
NtRp4942
(dp4943
g62
(dp4944
g4584
S'http://www.web2py.com/book/default/chapter/07'
p4945
ssg71
g4938
sg64
(lp4946
g4502
(S's\x14\x00\x00\x00Forms and Validators'
tRp4947
asbasbag57
(g4585
g59
NtRp4948
(dp4949
g62
(dp4950
sg71
g4864
sg64
(lp4951
g57
(g4578
g59
NtRp4952
(dp4953
g62
(dp4954
g4584
S'http://www.web2py.com/book/default/chapter/08'
p4955
ssg71
g4948
sg64
(lp4956
g4502
(S's\r\x00\x00\x00Email and SMS'
tRp4957
asbasbag57
(g4585
g59
NtRp4958
(dp4959
g62
(dp4960
sg71
g4864
sg64
(lp4961
g57
(g4578
g59
NtRp4962
(dp4963
g62
(dp4964
g4584
S'http://www.web2py.com/book/default/chapter/09'
p4965
ssg71
g4958
sg64
(lp4966
g4502
(S's\x0e\x00\x00\x00Access Control'
tRp4967
asbasbag57
(g4585
g59
NtRp4968
(dp4969
g62
(dp4970
sg71
g4864
sg64
(lp4971
g57
(g4578
g59
NtRp4972
(dp4973
g62
(dp4974
g4584
S'http://www.web2py.com/book/default/chapter/10'
p4975
ssg71
g4968
sg64
(lp4976
g4502
(S't\x08\x00\x00\x00Services'
tRp4977
asbasbag57
(g4585
g59
NtRp4978
(dp4979
g62
(dp4980
sg71
g4864
sg64
(lp4981
g57
(g4578
g59
NtRp4982
(dp4983
g62
(dp4984
g4584
S'http://www.web2py.com/book/default/chapter/11'
p4985
ssg71
g4978
sg64
(lp4986
g4502
(S's\x0c\x00\x00\x00Ajax Recipes'
tRp4987
asbasbag57
(g4585
g59
NtRp4988
(dp4989
g62
(dp4990
sg71
g4864
sg64
(lp4991
g57
(g4578
g59
NtRp4992
(dp4993
g62
(dp4994
g4584
S'http://www.web2py.com/book/default/chapter/12'
p4995
ssg71
g4988
sg64
(lp4996
g4502
(S's\x16\x00\x00\x00Components and Plugins'
tRp4997
asbasbag57
(g4585
g59
NtRp4998
(dp4999
g62
(dp5000
sg71
g4864
sg64
(lp5001
g57
(g4578
g59
NtRp5002
(dp5003
g62
(dp5004
g4584
S'http://www.web2py.com/book/default/chapter/13'
p5005
ssg71
g4998
sg64
(lp5006
g4502
(S's\x12\x00\x00\x00Deployment Recipes'
tRp5007
asbasbag57
(g4585
g59
NtRp5008
(dp5009
g62
(dp5010
sg71
g4864
sg64
(lp5011
g57
(g4578
g59
NtRp5012
(dp5013
g62
(dp5014
g4584
S'http://www.web2py.com/book/default/chapter/14'
p5015
ssg71
g5008
sg64
(lp5016
g4502
(S's\r\x00\x00\x00Other Recipes'
tRp5017
asbasbag57
(g4585
g59
NtRp5018
(dp5019
g62
(dp5020
sg71
g4864
sg64
(lp5021
g57
(g4578
g59
NtRp5022
(dp5023
g62
(dp5024
g4584
S'http://stores.lulu.com/web2py'
p5025
ssg71
g5018
sg64
(lp5026
g4502
(S's\r\x00\x00\x00Buy this book'
tRp5027
asbasbasbasbag57
(g4585
g59
NtRp5028
(dp5029
g62
(dp5030
g4589
g4590
ssg71
g4612
sg64
(lp5031
g57
(g4578
g59
NtRp5032
(dp5033
g62
(dp5034
g4582
g4583
sg4584
S'#'
ssg71
g5028
sg64
(lp5035
g4502
(S't\t\x00\x00\x00Community'
tRp5036
asbag57
(g4591
g59
NtRp5037
(dp5038
g62
(dp5039
g4589
g4599
ssg71
g5028
sg64
(lp5040
g57
(g4585
g59
NtRp5041
(dp5042
g62
(dp5043
sg71
g5037
sg64
(lp5044
g57
(g4578
g59
NtRp5045
(dp5046
g62
(dp5047
g4584
S'http://www.web2py.com/examples/default/usergroups'
p5048
ssg71
g5041
sg64
(lp5049
g4502
(S't\x06\x00\x00\x00Groups'
tRp5050
asbasbag57
(g4585
g59
NtRp5051
(dp5052
g62
(dp5053
sg71
g5037
sg64
(lp5054
g57
(g4578
g59
NtRp5055
(dp5056
g62
(dp5057
g4584
S'http://twitter.com/web2py'
p5058
ssg71
g5051
sg64
(lp5059
g4502
(S't\x07\x00\x00\x00Twitter'
tRp5060
asbasbag57
(g4585
g59
NtRp5061
(dp5062
g62
(dp5063
sg71
g5037
sg64
(lp5064
g57
(g4578
g59
NtRp5065
(dp5066
g62
(dp5067
g4584
S'http://webchat.freenode.net/?channels=web2py'
p5068
ssg71
g5061
sg64
(lp5069
g4502
(S's\t\x00\x00\x00Live Chat'
tRp5070
asbasbasbasbag57
(g4585
g59
NtRp5071
(dp5072
g62
(dp5073
g4589
g4590
ssg71
g4612
sg64
(lp5074
g57
(g4578
g59
NtRp5075
(dp5076
g62
(dp5077
g4582
g4583
sg4584
S'#'
ssg71
g5071
sg64
(lp5078
g4502
(S't\x07\x00\x00\x00Plugins'
tRp5079
asbag57
(g4591
g59
NtRp5080
(dp5081
g62
(dp5082
g4589
g4599
ssg71
g5071
sg64
(lp5083
g57
(g4585
g59
NtRp5084
(dp5085
g62
(dp5086
sg71
g5080
sg64
(lp5087
g57
(g4578
g59
NtRp5088
(dp5089
g62
(dp5090
g4584
S'http://web2py.com/examples/default/download'
p5091
ssg71
g5084
sg64
(lp5092
S'plugin_wiki'
p5093
asbasbag57
(g4585
g59
NtRp5094
(dp5095
g62
(dp5096
sg71
g5080
sg64
(lp5097
g57
(g4578
g59
NtRp5098
(dp5099
g62
(dp5100
g4584
g4821
ssg71
g5094
sg64
(lp5101
g4502
(S's\r\x00\x00\x00Other Plugins'
tRp5102
asbasbag57
(g4585
g59
NtRp5103
(dp5104
g62
(dp5105
sg71
g5080
sg64
(lp5106
g57
(g4578
g59
NtRp5107
(dp5108
g62
(dp5109
g4584
g4831
ssg71
g5103
sg64
(lp5110
g4502
(S's\x0e\x00\x00\x00Layout Plugins'
tRp5111
asbasbasbasbasbasbsg64
(lp5112
g4574
asbsg64
(lp5113
g4448
asbasbasbasbag57
(g73
g59
NtRp5114
(dp5115
g62
(dp5116
sg71
g4557
sg64
(lp5117
g57
(g78
g59
NtRp5118
(dp5119
g62
(dp5120
sg71
g5114
sg64
(lp5121
g57
(g58
g59
NtRp5122
(dp5123
g62
(dp5124
g70
I3
ssg71
g5118
sg64
(lp5125
g100
asbasbasbag57
(g73
g59
NtRp5126
(dp5127
g62
(dp5128
sg71
g4557
sg64
(lp5129
g57
(g78
g59
NtRp5130
(dp5131
g62
(dp5132
sg71
g5126
sg64
(lp5133
g57
(g58
g59
NtRp5134
(dp5135
g62
(dp5136
g70
I3
ssg71
g5130
sg64
(lp5137
S'None'
p5138
asbasbasbag57
(g73
g59
NtRp5139
(dp5140
g62
(dp5141
sg71
g4557
sg64
(lp5142
g57
(g78
g59
NtRp5143
(dp5144
g62
(dp5145
sg71
g5139
sg64
(lp5146
g57
(g58
g59
NtRp5147
(dp5148
g62
(dp5149
g70
I3
ssg71
g5143
sg64
(lp5150
g57
(g66
g59
NtRp5151
(dp5152
g62
(dp5153
g70
I2
ssg71
Nsg64
(lp5154
g57
(g73
g59
NtRp5155
(dp5156
g62
(dp5157
sg71
g5151
sg64
(lp5158
g57
(g78
g59
NtRp5159
(dp5160
g62
(dp5161
sg71
g5155
sg64
(lp5162
g57
(g58
g59
NtRp5163
(dp5164
g62
(dp5165
g70
I2
ssg71
g5159
sg64
(lp5166
g57
(g66
g59
NtRp5167
(dp5168
g62
(dp5169
g70
I1
ssg71
Nsg64
(lp5170
g57
(g73
g59
NtRp5171
(dp5172
g62
(dp5173
sg71
g5167
sg64
(lp5174
g57
(g78
g59
NtRp5175
(dp5176
g62
(dp5177
sg71
g5171
sg64
(lp5178
g57
(g58
g59
NtRp5179
(dp5180
g62
(dp5181
g70
I1
ssg71
g5175
sg64
(lp5182
g4625
asbasbasbag57
(g73
g59
NtRp5183
(dp5184
g62
(dp5185
sg71
g5167
sg64
(lp5186
g57
(g78
g59
NtRp5187
(dp5188
g62
(dp5189
sg71
g5183
sg64
(lp5190
g57
(g58
g59
NtRp5191
(dp5192
g62
(dp5193
g70
I1
ssg71
g5187
sg64
(lp5194
I00
asbasbasbag57
(g73
g59
NtRp5195
(dp5196
g62
(dp5197
sg71
g5167
sg64
(lp5198
g57
(g78
g59
NtRp5199
(dp5200
g62
(dp5201
sg71
g5195
sg64
(lp5202
g57
(g58
g59
NtRp5203
(dp5204
g62
(dp5205
g70
I1
ssg71
g5199
sg64
(lp5206
g4623
asbasbasbasbasbasbasbag57
(g73
g59
NtRp5207
(dp5208
g62
(dp5209
sg71
g5151
sg64
(lp5210
g57
(g78
g59
NtRp5211
(dp5212
g62
(dp5213
sg71
g5207
sg64
(lp5214
g57
(g58
g59
NtRp5215
(dp5216
g62
(dp5217
g70
I2
ssg71
g5211
sg64
(lp5218
g57
(g66
g59
NtRp5219
(dp5220
g62
(dp5221
g70
I1
ssg71
Nsg64
(lp5222
g57
(g73
g59
NtRp5223
(dp5224
g62
(dp5225
sg71
g5219
sg64
(lp5226
g57
(g78
g59
NtRp5227
(dp5228
g62
(dp5229
sg71
g5223
sg64
(lp5230
g57
(g58
g59
NtRp5231
(dp5232
g62
(dp5233
g70
I1
ssg71
g5227
sg64
(lp5234
g4635
asbasbasbag57
(g73
g59
NtRp5235
(dp5236
g62
(dp5237
sg71
g5219
sg64
(lp5238
g57
(g78
g59
NtRp5239
(dp5240
g62
(dp5241
sg71
g5235
sg64
(lp5242
g57
(g58
g59
NtRp5243
(dp5244
g62
(dp5245
g70
I1
ssg71
g5239
sg64
(lp5246
I00
asbasbasbag57
(g73
g59
NtRp5247
(dp5248
g62
(dp5249
sg71
g5219
sg64
(lp5250
g57
(g78
g59
NtRp5251
(dp5252
g62
(dp5253
sg71
g5247
sg64
(lp5254
g57
(g58
g59
NtRp5255
(dp5256
g62
(dp5257
g70
I1
ssg71
g5251
sg64
(lp5258
g4633
asbasbasbag57
(g73
g59
NtRp5259
(dp5260
g62
(dp5261
sg71
g5219
sg64
(lp5262
g57
(g78
g59
NtRp5263
(dp5264
g62
(dp5265
sg71
g5259
sg64
(lp5266
g57
(g58
g59
NtRp5267
(dp5268
g62
(dp5269
g70
I1
ssg71
g5263
sg64
(lp5270
(lp5271
(g4649
I00
g4647
tp5272
a(g4659
I00
g4657
tp5273
a(g4669
I00
g4667
tp5274
a(g4679
I00
g4677
tp5275
a(g4689
I00
g4687
tp5276
a(g4699
I00
g4697
tp5277
a(g4709
I00
g4707
tp5278
a(g4719
I00
g4717
tp5279
a(g4729
I00
g4727
tp5280
aasbasbasbasbasbasbasbag57
(g73
g59
NtRp5281
(dp5282
g62
(dp5283
sg71
g5151
sg64
(lp5284
g57
(g78
g59
NtRp5285
(dp5286
g62
(dp5287
sg71
g5281
sg64
(lp5288
g57
(g58
g59
NtRp5289
(dp5290
g62
(dp5291
g70
I2
ssg71
g5285
sg64
(lp5292
g57
(g66
g59
NtRp5293
(dp5294
g62
(dp5295
g70
I1
ssg71
Nsg64
(lp5296
g57
(g73
g59
NtRp5297
(dp5298
g62
(dp5299
sg71
g5293
sg64
(lp5300
g57
(g78
g59
NtRp5301
(dp5302
g62
(dp5303
sg71
g5297
sg64
(lp5304
g57
(g58
g59
NtRp5305
(dp5306
g62
(dp5307
g70
I1
ssg71
g5301
sg64
(lp5308
g4739
asbasbasbag57
(g73
g59
NtRp5309
(dp5310
g62
(dp5311
sg71
g5293
sg64
(lp5312
g57
(g78
g59
NtRp5313
(dp5314
g62
(dp5315
sg71
g5309
sg64
(lp5316
g57
(g58
g59
NtRp5317
(dp5318
g62
(dp5319
g70
I1
ssg71
g5313
sg64
(lp5320
I00
asbasbasbag57
(g73
g59
NtRp5321
(dp5322
g62
(dp5323
sg71
g5293
sg64
(lp5324
g57
(g78
g59
NtRp5325
(dp5326
g62
(dp5327
sg71
g5321
sg64
(lp5328
g57
(g58
g59
NtRp5329
(dp5330
g62
(dp5331
g70
I1
ssg71
g5325
sg64
(lp5332
g4737
asbasbasbag57
(g73
g59
NtRp5333
(dp5334
g62
(dp5335
sg71
g5293
sg64
(lp5336
g57
(g78
g59
NtRp5337
(dp5338
g62
(dp5339
sg71
g5333
sg64
(lp5340
g57
(g58
g59
NtRp5341
(dp5342
g62
(dp5343
g70
I1
ssg71
g5337
sg64
(lp5344
(lp5345
(g4753
I00
g4751
tp5346
a(g4763
I00
g4761
tp5347
a(g4773
I00
g4771
tp5348
a(g4783
I00
g4781
tp5349
a(g4793
I00
g4791
tp5350
a(g4803
I00
g4801
tp5351
a(g4813
I00
g4811
tp5352
a(g4823
I00
g4821
tp5353
a(g4833
I00
g4831
tp5354
a(g4843
I00
g4841
tp5355
a(g4853
I00
g4851
tp5356
aasbasbasbasbasbasbasbag57
(g73
g59
NtRp5357
(dp5358
g62
(dp5359
sg71
g5151
sg64
(lp5360
g57
(g78
g59
NtRp5361
(dp5362
g62
(dp5363
sg71
g5357
sg64
(lp5364
g57
(g58
g59
NtRp5365
(dp5366
g62
(dp5367
g70
I2
ssg71
g5361
sg64
(lp5368
g57
(g66
g59
NtRp5369
(dp5370
g62
(dp5371
g70
I1
ssg71
Nsg64
(lp5372
g57
(g73
g59
NtRp5373
(dp5374
g62
(dp5375
sg71
g5369
sg64
(lp5376
g57
(g78
g59
NtRp5377
(dp5378
g62
(dp5379
sg71
g5373
sg64
(lp5380
g57
(g58
g59
NtRp5381
(dp5382
g62
(dp5383
g70
I1
ssg71
g5377
sg64
(lp5384
g4863
asbasbasbag57
(g73
g59
NtRp5385
(dp5386
g62
(dp5387
sg71
g5369
sg64
(lp5388
g57
(g78
g59
NtRp5389
(dp5390
g62
(dp5391
sg71
g5385
sg64
(lp5392
g57
(g58
g59
NtRp5393
(dp5394
g62
(dp5395
g70
I1
ssg71
g5389
sg64
(lp5396
I00
asbasbasbag57
(g73
g59
NtRp5397
(dp5398
g62
(dp5399
sg71
g5369
sg64
(lp5400
g57
(g78
g59
NtRp5401
(dp5402
g62
(dp5403
sg71
g5397
sg64
(lp5404
g57
(g58
g59
NtRp5405
(dp5406
g62
(dp5407
g70
I1
ssg71
g5401
sg64
(lp5408
g4861
asbasbasbag57
(g73
g59
NtRp5409
(dp5410
g62
(dp5411
sg71
g5369
sg64
(lp5412
g57
(g78
g59
NtRp5413
(dp5414
g62
(dp5415
sg71
g5409
sg64
(lp5416
g57
(g58
g59
NtRp5417
(dp5418
g62
(dp5419
g70
I1
ssg71
g5413
sg64
(lp5420
(lp5421
(g4877
I00
g4875
tp5422
a(g4887
I00
g4885
tp5423
a(g4897
I00
g4895
tp5424
a(g4907
I00
g4905
tp5425
a(g4917
I00
g4915
tp5426
a(g4927
I00
g4925
tp5427
a(g4937
I00
g4935
tp5428
a(g4947
I00
g4945
tp5429
a(g4957
I00
g4955
tp5430
a(g4967
I00
g4965
tp5431
a(g4977
I00
g4975
tp5432
a(g4987
I00
g4985
tp5433
a(g4997
I00
g4995
tp5434
a(g5007
I00
g5005
tp5435
a(g5017
I00
g5015
tp5436
a(g5027
I00
g5025
tp5437
aasbasbasbasbasbasbasbag57
(g73
g59
NtRp5438
(dp5439
g62
(dp5440
sg71
g5151
sg64
(lp5441
g57
(g78
g59
NtRp5442
(dp5443
g62
(dp5444
sg71
g5438
sg64
(lp5445
g57
(g58
g59
NtRp5446
(dp5447
g62
(dp5448
g70
I2
ssg71
g5442
sg64
(lp5449
g57
(g66
g59
NtRp5450
(dp5451
g62
(dp5452
g70
I1
ssg71
Nsg64
(lp5453
g57
(g73
g59
NtRp5454
(dp5455
g62
(dp5456
sg71
g5450
sg64
(lp5457
g57
(g78
g59
NtRp5458
(dp5459
g62
(dp5460
sg71
g5454
sg64
(lp5461
g57
(g58
g59
NtRp5462
(dp5463
g62
(dp5464
g70
I1
ssg71
g5458
sg64
(lp5465
g5036
asbasbasbag57
(g73
g59
NtRp5466
(dp5467
g62
(dp5468
sg71
g5450
sg64
(lp5469
g57
(g78
g59
NtRp5470
(dp5471
g62
(dp5472
sg71
g5466
sg64
(lp5473
g57
(g58
g59
NtRp5474
(dp5475
g62
(dp5476
g70
I1
ssg71
g5470
sg64
(lp5477
I00
asbasbasbag57
(g73
g59
NtRp5478
(dp5479
g62
(dp5480
sg71
g5450
sg64
(lp5481
g57
(g78
g59
NtRp5482
(dp5483
g62
(dp5484
sg71
g5478
sg64
(lp5485
g57
(g58
g59
NtRp5486
(dp5487
g62
(dp5488
g70
I1
ssg71
g5482
sg64
(lp5489
Nasbasbasbag57
(g73
g59
NtRp5490
(dp5491
g62
(dp5492
sg71
g5450
sg64
(lp5493
g57
(g78
g59
NtRp5494
(dp5495
g62
(dp5496
sg71
g5490
sg64
(lp5497
g57
(g58
g59
NtRp5498
(dp5499
g62
(dp5500
g70
I1
ssg71
g5494
sg64
(lp5501
(lp5502
(g5050
I00
g5048
tp5503
a(g5060
I00
g5058
tp5504
a(g5070
I00
g5068
tp5505
aasbasbasbasbasbasbasbag57
(g73
g59
NtRp5506
(dp5507
g62
(dp5508
sg71
g5151
sg64
(lp5509
g57
(g78
g59
NtRp5510
(dp5511
g62
(dp5512
sg71
g5506
sg64
(lp5513
g57
(g58
g59
NtRp5514
(dp5515
g62
(dp5516
g70
I2
ssg71
g5510
sg64
(lp5517
g57
(g66
g59
NtRp5518
(dp5519
g62
(dp5520
g70
I1
ssg71
Nsg64
(lp5521
g57
(g73
g59
NtRp5522
(dp5523
g62
(dp5524
sg71
g5518
sg64
(lp5525
g57
(g78
g59
NtRp5526
(dp5527
g62
(dp5528
sg71
g5522
sg64
(lp5529
g57
(g58
g59
NtRp5530
(dp5531
g62
(dp5532
g70
I1
ssg71
g5526
sg64
(lp5533
g5079
asbasbasbag57
(g73
g59
NtRp5534
(dp5535
g62
(dp5536
sg71
g5518
sg64
(lp5537
g57
(g78
g59
NtRp5538
(dp5539
g62
(dp5540
sg71
g5534
sg64
(lp5541
g57
(g58
g59
NtRp5542
(dp5543
g62
(dp5544
g70
I1
ssg71
g5538
sg64
(lp5545
I00
asbasbasbag57
(g73
g59
NtRp5546
(dp5547
g62
(dp5548
sg71
g5518
sg64
(lp5549
g57
(g78
g59
NtRp5550
(dp5551
g62
(dp5552
sg71
g5546
sg64
(lp5553
g57
(g58
g59
NtRp5554
(dp5555
g62
(dp5556
g70
I1
ssg71
g5550
sg64
(lp5557
Nasbasbasbag57
(g73
g59
NtRp5558
(dp5559
g62
(dp5560
sg71
g5518
sg64
(lp5561
g57
(g78
g59
NtRp5562
(dp5563
g62
(dp5564
sg71
g5558
sg64
(lp5565
g57
(g58
g59
NtRp5566
(dp5567
g62
(dp5568
g70
I1
ssg71
g5562
sg64
(lp5569
(lp5570
(g5093
I00
g5091
tp5571
a(g5102
I00
g4821
tp5572
a(g5111
I00
g4831
tp5573
aasbasbasbasbasbasbasbasbasbasbasbasbasbasbasbasbasbasbasbag57
(g73
g59
NtRp5574
(dp5575
g62
(dp5576
sg71
g3854
sg64
(lp5577
g57
(g78
g59
NtRp5578
(dp5579
g62
(dp5580
g82
g83
ssg71
g5574
sg64
(lp5581
S'meta'
p5582
asbag57
(g78
g59
NtRp5583
(dp5584
g62
(dp5585
g89
g90
ssg71
g5574
sg64
(lp5586
S':'
asbag57
(g78
g59
NtRp5587
(dp5588
g62
(dp5589
sg71
g5574
sg64
(lp5590
g57
(g58
g59
NtRp5591
(dp5592
g62
(dp5593
g70
I5
ssg71
g5587
sg64
(lp5594
g57
(g66
g59
NtRp5595
(dp5596
g62
(dp5597
g70
I4
ssg71
Nsg64
(lp5598
g57
(g73
g59
NtRp5599
(dp5600
g62
(dp5601
sg71
g5595
sg64
(lp5602
g57
(g78
g59
NtRp5603
(dp5604
g62
(dp5605
g82
g83
ssg71
g5599
sg64
(lp5606
S'author'
p5607
asbag57
(g78
g59
NtRp5608
(dp5609
g62
(dp5610
g89
g90
ssg71
g5599
sg64
(lp5611
S':'
asbag57
(g78
g59
NtRp5612
(dp5613
g62
(dp5614
sg71
g5599
sg64
(lp5615
g57
(g58
g59
NtRp5616
(dp5617
g62
(dp5618
g70
I4
ssg71
g5612
sg64
(lp5619
S'Your Name <you@example.com>'
p5620
asbasbasbag57
(g73
g59
NtRp5621
(dp5622
g62
(dp5623
sg71
g5595
sg64
(lp5624
g57
(g78
g59
NtRp5625
(dp5626
g62
(dp5627
g82
g83
ssg71
g5621
sg64
(lp5628
S'copyright'
p5629
asbag57
(g78
g59
NtRp5630
(dp5631
g62
(dp5632
g89
g90
ssg71
g5621
sg64
(lp5633
S':'
asbag57
(g78
g59
NtRp5634
(dp5635
g62
(dp5636
sg71
g5621
sg64
(lp5637
g57
(g58
g59
NtRp5638
(dp5639
g62
(dp5640
g70
I4
ssg71
g5634
sg64
(lp5641
S'Copyright 2011'
p5642
asbasbasbag57
(g73
g59
NtRp5643
(dp5644
g62
(dp5645
sg71
g5595
sg64
(lp5646
g57
(g78
g59
NtRp5647
(dp5648
g62
(dp5649
g82
g83
ssg71
g5643
sg64
(lp5650
S'description'
p5651
asbag57
(g78
g59
NtRp5652
(dp5653
g62
(dp5654
g89
g90
ssg71
g5643
sg64
(lp5655
S':'
asbag57
(g78
g59
NtRp5656
(dp5657
g62
(dp5658
sg71
g5643
sg64
(lp5659
g57
(g58
g59
NtRp5660
(dp5661
g62
(dp5662
g70
I4
ssg71
g5656
sg64
(lp5663
S'a cool new app'
p5664
asbasbasbag57
(g73
g59
NtRp5665
(dp5666
g62
(dp5667
sg71
g5595
sg64
(lp5668
g57
(g78
g59
NtRp5669
(dp5670
g62
(dp5671
g82
g83
ssg71
g5665
sg64
(lp5672
S'generator'
p5673
asbag57
(g78
g59
NtRp5674
(dp5675
g62
(dp5676
g89
g90
ssg71
g5665
sg64
(lp5677
S':'
asbag57
(g78
g59
NtRp5678
(dp5679
g62
(dp5680
sg71
g5665
sg64
(lp5681
g57
(g58
g59
NtRp5682
(dp5683
g62
(dp5684
g70
I4
ssg71
g5678
sg64
(lp5685
S'Web2py Web Framework'
p5686
asbasbasbag57
(g73
g59
NtRp5687
(dp5688
g62
(dp5689
sg71
g5595
sg64
(lp5690
g57
(g78
g59
NtRp5691
(dp5692
g62
(dp5693
g82
g83
ssg71
g5687
sg64
(lp5694
S'keywords'
p5695
asbag57
(g78
g59
NtRp5696
(dp5697
g62
(dp5698
g89
g90
ssg71
g5687
sg64
(lp5699
S':'
asbag57
(g78
g59
NtRp5700
(dp5701
g62
(dp5702
sg71
g5687
sg64
(lp5703
g57
(g58
g59
NtRp5704
(dp5705
g62
(dp5706
g70
I4
ssg71
g5700
sg64
(lp5707
S'web2py, python, framework'
p5708
asbasbasbasbasbasbasbag57
(g73
g59
NtRp5709
(dp5710
g62
(dp5711
sg71
g3854
sg64
(lp5712
g57
(g78
g59
NtRp5713
(dp5714
g62
(dp5715
g82
g83
ssg71
g5709
sg64
(lp5716
S'postprocessing'
p5717
asbag57
(g78
g59
NtRp5718
(dp5719
g62
(dp5720
g89
g90
ssg71
g5709
sg64
(lp5721
S':'
asbag57
(g78
g59
NtRp5722
(dp5723
g62
(dp5724
sg71
g5709
sg64
(lp5725
g57
(g58
g59
NtRp5726
(dp5727
g62
(dp5728
g70
I5
ssg71
g5722
sg64
(lp5729
g57
(g66
g59
NtRp5730
(dp5731
g62
(dp5732
g70
I4
ssg71
Nsg64
(lp5733
sbasbasbasbag57
(g73
g59
NtRp5734
(dp5735
g62
(dp5736
sg71
g3854
sg64
(lp5737
g57
(g78
g59
NtRp5738
(dp5739
g62
(dp5740
g82
g83
ssg71
g5734
sg64
(lp5741
S'session_file'
p5742
asbag57
(g78
g59
NtRp5743
(dp5744
g62
(dp5745
g89
g90
ssg71
g5734
sg64
(lp5746
S':'
asbag57
(g78
g59
NtRp5747
(dp5748
g62
(dp5749
sg71
g5734
sg64
(lp5750
g57
(g58
g59
NtRp5751
(dp5752
g62
(dp5753
g70
I5
ssg71
g5747
sg64
(lp5754
S"<open file '/home/manikanta/Study/web2py/applications/Just_Click_/sessions/127.0.0.1-03949bd9-4000-4d26-9ac1-c5dfe5f7bdd0', mode 'rb+' at 0xaf64ad88>"
p5755
asbasbasbag57
(g73
g59
NtRp5756
(dp5757
g62
(dp5758
sg71
g3854
sg64
(lp5759
g57
(g78
g59
NtRp5760
(dp5761
g62
(dp5762
g82
g83
ssg71
g5756
sg64
(lp5763
S'session_filename'
p5764
asbag57
(g78
g59
NtRp5765
(dp5766
g62
(dp5767
g89
g90
ssg71
g5756
sg64
(lp5768
S':'
asbag57
(g78
g59
NtRp5769
(dp5770
g62
(dp5771
sg71
g5756
sg64
(lp5772
g57
(g58
g59
NtRp5773
(dp5774
g62
(dp5775
g70
I5
ssg71
g5769
sg64
(lp5776
S'/home/manikanta/Study/web2py/applications/Just_Click_/sessions/127.0.0.1-03949bd9-4000-4d26-9ac1-c5dfe5f7bdd0'
p5777
asbasbasbag57
(g73
g59
NtRp5778
(dp5779
g62
(dp5780
sg71
g3854
sg64
(lp5781
g57
(g78
g59
NtRp5782
(dp5783
g62
(dp5784
g82
g83
ssg71
g5778
sg64
(lp5785
S'session_id'
p5786
asbag57
(g78
g59
NtRp5787
(dp5788
g62
(dp5789
g89
g90
ssg71
g5778
sg64
(lp5790
S':'
asbag57
(g78
g59
NtRp5791
(dp5792
g62
(dp5793
sg71
g5778
sg64
(lp5794
g57
(g58
g59
NtRp5795
(dp5796
g62
(dp5797
g70
I5
ssg71
g5791
sg64
(lp5798
S'127.0.0.1-03949bd9-4000-4d26-9ac1-c5dfe5f7bdd0'
p5799
asbasbasbag57
(g73
g59
NtRp5800
(dp5801
g62
(dp5802
sg71
g3854
sg64
(lp5803
g57
(g78
g59
NtRp5804
(dp5805
g62
(dp5806
g82
g83
ssg71
g5800
sg64
(lp5807
S'session_id_name'
p5808
asbag57
(g78
g59
NtRp5809
(dp5810
g62
(dp5811
g89
g90
ssg71
g5800
sg64
(lp5812
S':'
asbag57
(g78
g59
NtRp5813
(dp5814
g62
(dp5815
sg71
g5800
sg64
(lp5816
g57
(g58
g59
NtRp5817
(dp5818
g62
(dp5819
g70
I5
ssg71
g5813
sg64
(lp5820
g3911
asbasbasbag57
(g73
g59
NtRp5821
(dp5822
g62
(dp5823
sg71
g3854
sg64
(lp5824
g57
(g78
g59
NtRp5825
(dp5826
g62
(dp5827
g82
g83
ssg71
g5821
sg64
(lp5828
S'session_locked'
p5829
asbag57
(g78
g59
NtRp5830
(dp5831
g62
(dp5832
g89
g90
ssg71
g5821
sg64
(lp5833
S':'
asbag57
(g78
g59
NtRp5834
(dp5835
g62
(dp5836
sg71
g5821
sg64
(lp5837
g57
(g58
g59
NtRp5838
(dp5839
g62
(dp5840
g70
I5
ssg71
g5834
sg64
(lp5841
g2061
asbasbasbag57
(g73
g59
NtRp5842
(dp5843
g62
(dp5844
sg71
g3854
sg64
(lp5845
g57
(g78
g59
NtRp5846
(dp5847
g62
(dp5848
g82
g83
ssg71
g5842
sg64
(lp5849
S'session_new'
p5850
asbag57
(g78
g59
NtRp5851
(dp5852
g62
(dp5853
g89
g90
ssg71
g5842
sg64
(lp5854
S':'
asbag57
(g78
g59
NtRp5855
(dp5856
g62
(dp5857
sg71
g5842
sg64
(lp5858
g57
(g58
g59
NtRp5859
(dp5860
g62
(dp5861
g70
I5
ssg71
g5855
sg64
(lp5862
g100
asbasbasbag57
(g73
g59
NtRp5863
(dp5864
g62
(dp5865
sg71
g3854
sg64
(lp5866
g57
(g78
g59
NtRp5867
(dp5868
g62
(dp5869
g82
g83
ssg71
g5863
sg64
(lp5870
S'status'
p5871
asbag57
(g78
g59
NtRp5872
(dp5873
g62
(dp5874
g89
g90
ssg71
g5863
sg64
(lp5875
S':'
asbag57
(g78
g59
NtRp5876
(dp5877
g62
(dp5878
sg71
g5863
sg64
(lp5879
g57
(g58
g59
NtRp5880
(dp5881
g62
(dp5882
g70
I5
ssg71
g5876
sg64
(lp5883
S'200'
p5884
asbasbasbag57
(g73
g59
NtRp5885
(dp5886
g62
(dp5887
sg71
g3854
sg64
(lp5888
g57
(g78
g59
NtRp5889
(dp5890
g62
(dp5891
g82
g83
ssg71
g5885
sg64
(lp5892
S'subtitle'
p5893
asbag57
(g78
g59
NtRp5894
(dp5895
g62
(dp5896
g89
g90
ssg71
g5885
sg64
(lp5897
S':'
asbag57
(g78
g59
NtRp5898
(dp5899
g62
(dp5900
sg71
g5885
sg64
(lp5901
g57
(g58
g59
NtRp5902
(dp5903
g62
(dp5904
g70
I5
ssg71
g5898
sg64
(lp5905
g4502
(S's\r\x00\x00\x00customize me!'
tRp5906
asbasbasbag57
(g73
g59
NtRp5907
(dp5908
g62
(dp5909
sg71
g3854
sg64
(lp5910
g57
(g78
g59
NtRp5911
(dp5912
g62
(dp5913
g82
g83
ssg71
g5907
sg64
(lp5914
S'title'
p5915
asbag57
(g78
g59
NtRp5916
(dp5917
g62
(dp5918
g89
g90
ssg71
g5907
sg64
(lp5919
S':'
asbag57
(g78
g59
NtRp5920
(dp5921
g62
(dp5922
sg71
g5907
sg64
(lp5923
g57
(g58
g59
NtRp5924
(dp5925
g62
(dp5926
g70
I5
ssg71
g5920
sg64
(lp5927
S'Just Click '
p5928
asbasbasbag57
(g73
g59
NtRp5929
(dp5930
g62
(dp5931
sg71
g3854
sg64
(lp5932
g57
(g78
g59
NtRp5933
(dp5934
g62
(dp5935
g82
g83
ssg71
g5929
sg64
(lp5936
g2746
asbag57
(g78
g59
NtRp5937
(dp5938
g62
(dp5939
g89
g90
ssg71
g5929
sg64
(lp5940
S':'
asbag57
(g78
g59
NtRp5941
(dp5942
g62
(dp5943
sg71
g5929
sg64
(lp5944
g57
(g58
g59
NtRp5945
(dp5946
g62
(dp5947
g70
I5
ssg71
g5941
sg64
(lp5948
g2759
asbasbasbag57
(g73
g59
NtRp5949
(dp5950
g62
(dp5951
sg71
g3854
sg64
(lp5952
g57
(g78
g59
NtRp5953
(dp5954
g62
(dp5955
g82
g83
ssg71
g5949
sg64
(lp5956
S'view'
p5957
asbag57
(g78
g59
NtRp5958
(dp5959
g62
(dp5960
g89
g90
ssg71
g5949
sg64
(lp5961
S':'
asbag57
(g78
g59
NtRp5962
(dp5963
g62
(dp5964
sg71
g5949
sg64
(lp5965
g57
(g58
g59
NtRp5966
(dp5967
g62
(dp5968
g70
I5
ssg71
g5962
sg64
(lp5969
S'default/show.html'
p5970
asbasbasbasbasbsS'locals'
p5971
(dp5972
S'OBJECT'
p5973
S"<class 'gluon.html.OBJECT'>"
p5974
sS'SQLDB'
p5975
S"<class 'gluon.dal.DAL'>"
p5976
sg3461
S"<Storage {'_formkey[comment/None]': 'a5f9030f-77... {'version': '21.0.1180.89', 'name': 'Chrome'}}}>"
p5977
sS'LINK'
p5978
S"<class 'gluon.html.LINK'>"
p5979
sS'BR'
p5980
S"<class 'gluon.html.BR'>"
p5981
sS'local_import'
p5982
S'<function <lambda>>'
p5983
sS'OPTGROUP'
p5984
S"<class 'gluon.html.OPTGROUP'>"
p5985
sS'__package__'
p5986
S'None'
p5987
sS'PRE'
p5988
S"<class 'gluon.html.PRE'>"
p5989
sS'IS_INT_IN_RANGE'
p5990
S"<class 'gluon.validators.IS_INT_IN_RANGE'>"
p5991
sS'left_sidebar_enabled'
p5992
g100
sS'IS_LOWER'
p5993
S"<class 'gluon.validators.IS_LOWER'>"
p5994
sS'IS_STRONG'
p5995
S"<class 'gluon.validators.IS_STRONG'>"
p5996
sS'cache'
p5997
S'<gluon.cache.Cache object>'
p5998
sS'IS_IN_DB'
p5999
S"<class 'gluon.validators.IS_IN_DB'>"
p6000
sS'TAG'
p6001
S'<gluon.html.__TAG__ object>'
p6002
sS'SQLField'
p6003
S"<class 'gluon.dal.Field'>"
p6004
sS'BODY'
p6005
S"<class 'gluon.html.BODY'>"
p6006
sS'IS_DATE_IN_RANGE'
p6007
S"<class 'gluon.validators.IS_DATE_IN_RANGE'>"
p6008
sS'TH'
p6009
S"<class 'gluon.html.TH'>"
p6010
sS'URL'
p6011
S'<function URL>'
p6012
sS'__file__'
p6013
S"'/home/manikanta/Study/web2py/applications/Just_Click_/views/default/show.html'"
p6014
sS'db'
p6015
S"<DAL {'comment': <Table {'body': <gluon.dal.Fiel..._key': <gluon.dal.Field object at 0xaec0628c>}>}>"
p6016
sS'auth'
p6017
S'<gluon.tools.Auth object>'
p6018
sS'P'
S"<class 'gluon.html.P'>"
p6019
sS'TFOOT'
p6020
S"<class 'gluon.html.TFOOT'>"
p6021
sS'XHTML'
p6022
S"<class 'gluon.html.XHTML'>"
p6023
sS'ON'
p6024
g2061
sS'OL'
p6025
S"<class 'gluon.html.OL'>"
p6026
sS'TEXTAREA'
p6027
S"<class 'gluon.html.TEXTAREA'>"
p6028
sS'MENU'
p6029
S"<class 'gluon.html.MENU'>"
p6030
sS'LOAD'
p6031
S'<function LOAD>'
p6032
sS'CODE'
p6033
S"<class 'gluon.html.CODE'>"
p6034
sS'HTTP'
p6035
S"<class 'gluon.http.HTTP'>"
p6036
sS'HR'
p6037
S"<class 'gluon.html.HR'>"
p6038
sS'IS_DATETIME'
p6039
S"<class 'gluon.validators.IS_DATETIME'>"
p6040
sS'HEAD'
p6041
S"<class 'gluon.html.HEAD'>"
p6042
sS'LABEL'
p6043
S"<class 'gluon.html.LABEL'>"
p6044
sS'CLEANUP'
p6045
S"<class 'gluon.validators.CLEANUP'>"
p6046
sS'images'
p6047
S'<gluon.dal.Rows object>'
p6048
sS'SELECT'
p6049
S"<class 'gluon.html.SELECT'>"
p6050
sS'CENTER'
p6051
S"<class 'gluon.html.CENTER'>"
p6052
sS'Crud'
p6053
S"<class 'gluon.tools.Crud'>"
p6054
sS'Auth'
p6055
S"<class 'gluon.tools.Auth'>"
p6056
sS'__builtins__'
p6057
S"{'ArithmeticError': <type 'exceptions.ArithmeticError'>, 'AssertionError': <type 'exceptions.AssertionError'>, 'AttributeError': <type 'exceptions.AttributeError'>, 'BaseException': <type 'exceptions.BaseException'>, 'BufferError': <type 'exceptions.BufferError'>, 'BytesWarning': <type 'exceptions.BytesWarning'>, 'DeprecationWarning': <type 'exceptions.DeprecationWarning'>, 'EOFError': <type 'exceptions.EOFError'>, 'Ellipsis': Ellipsis, 'EnvironmentError': <type 'exceptions.EnvironmentError'>, ...}"
p6058
sS'HTML'
p6059
S"<class 'gluon.html.HTML'>"
p6060
sS'SQLFORM'
p6061
S"<class 'gluon.sqlhtml.SQLFORM'>"
p6062
sS'EM'
p6063
S"<class 'gluon.html.EM'>"
p6064
sS'redirect'
p6065
S'<function redirect>'
p6066
sS'FIELDSET'
p6067
S"<class 'gluon.html.FIELDSET'>"
p6068
sS'IS_EQUAL_TO'
p6069
S"<class 'gluon.validators.IS_EQUAL_TO'>"
p6070
sS'embed64'
p6071
S'<function embed64>'
p6072
sS'IS_LIST_OF'
p6073
S"<class 'gluon.validators.IS_LIST_OF'>"
p6074
sS'__name__'
p6075
S"'__restricted__'"
p6076
sS'EMBED'
p6077
S"<class 'gluon.html.EMBED'>"
p6078
sS'_'
S'<function _>'
p6079
sS'FORM'
p6080
S"<class 'gluon.html.FORM'>"
p6081
sS'H2'
p6082
S"<class 'gluon.html.H2'>"
p6083
sS'H3'
p6084
S"<class 'gluon.html.H3'>"
p6085
sS'BUTTON'
p6086
S"<class 'gluon.html.BUTTON'>"
p6087
sS'H1'
p6088
S"<class 'gluon.html.H1'>"
p6089
sS'H6'
p6090
S"<class 'gluon.html.H6'>"
p6091
sS'H4'
p6092
S"<class 'gluon.html.H4'>"
p6093
sS'H5'
p6094
S"<class 'gluon.html.H5'>"
p6095
sS'UL'
p6096
S"<class 'gluon.html.UL'>"
p6097
sS'IS_UPPER'
p6098
S"<class 'gluon.validators.IS_UPPER'>"
p6099
sS'w'
S"'Admin_1'"
p6100
sS'xmlescape'
p6101
S'<function xmlescape>'
p6102
sS'IS_TIME'
p6103
S"<class 'gluon.validators.IS_TIME'>"
p6104
sS'OPTION'
p6105
S"<class 'gluon.html.OPTION'>"
p6106
sS'TITLE'
p6107
S"<class 'gluon.html.TITLE'>"
p6108
sS'CRYPT'
p6109
S"<class 'gluon.validators.CRYPT'>"
p6110
sS'image'
p6111
S'None'
p6112
sS'IS_EMPTY_OR'
p6113
S"<class 'gluon.validators.IS_EMPTY_OR'>"
p6114
sS'MARKMIN'
p6115
S"<class 'gluon.html.MARKMIN'>"
p6116
sS'INPUT'
p6117
S"<class 'gluon.html.INPUT'>"
p6118
sS'COL'
p6119
S"<class 'gluon.html.COL'>"
p6120
sS'SCRIPT'
p6121
S"<class 'gluon.html.SCRIPT'>"
p6122
sS'is_mobile'
p6123
g100
sS'TABLE'
p6124
S"<class 'gluon.html.TABLE'>"
p6125
sS'IS_IPV4'
p6126
S"<class 'gluon.validators.IS_IPV4'>"
p6127
sS'IS_LENGTH'
p6128
S"<class 'gluon.validators.IS_LENGTH'>"
p6129
sS'XML'
p6130
S"<class 'gluon.html.XML'>"
p6131
sS'B'
S"<class 'gluon.html.B'>"
p6132
sS'IMG'
p6133
S"<class 'gluon.html.IMG'>"
p6134
sS'SQLTABLE'
p6135
S"<class 'gluon.sqlhtml.SQLTABLE'>"
p6136
sS'IS_MATCH'
p6137
S"<class 'gluon.validators.IS_MATCH'>"
p6138
sS'IS_ALPHANUMERIC'
p6139
S"<class 'gluon.validators.IS_ALPHANUMERIC'>"
p6140
sS'SPAN'
p6141
S"<class 'gluon.html.SPAN'>"
p6142
sS'IS_SLUG'
p6143
S"<class 'gluon.validators.IS_SLUG'>"
p6144
sS'BEAUTIFY'
p6145
S"<class 'gluon.html.BEAUTIFY'>"
p6146
sS'META'
p6147
S"<class 'gluon.html.META'>"
p6148
sS'IS_DATE'
p6149
S"<class 'gluon.validators.IS_DATE'>"
p6150
sS'IS_EMAIL'
p6151
S"<class 'gluon.validators.IS_EMAIL'>"
p6152
sS'IS_NOT_EMPTY'
p6153
S"<class 'gluon.validators.IS_NOT_EMPTY'>"
p6154
sg56
S"<Storage {'body': <cStringIO.StringO object at 0..._vars': <Storage {}>, 'post_vars': <Storage {}>}>"
p6155
sS'TBODY'
p6156
S"<class 'gluon.html.TBODY'>"
p6157
sS'CAT'
p6158
S"<class 'gluon.html.CAT'>"
p6159
sS'Field'
p6160
S"<class 'gluon.dal.Field'>"
p6161
sS'middle_columns'
p6162
S"'sixteen'"
p6163
sS'DIV'
p6164
S"<class 'gluon.html.DIV'>"
p6165
sS'LEGEND'
p6166
S"<class 'gluon.html.LEGEND'>"
p6167
sS'COLGROUP'
p6168
S"<class 'gluon.html.COLGROUP'>"
p6169
sS'DAL'
p6170
S"<class 'gluon.dal.DAL'>"
p6171
sS'TT'
p6172
S"<class 'gluon.html.TT'>"
p6173
sS'TR'
p6174
S"<class 'gluon.html.TR'>"
p6175
sS'LI'
p6176
S"<class 'gluon.html.LI'>"
p6177
sS'right_sidebar_enabled'
p6178
g100
sS'IFRAME'
p6179
S"<class 'gluon.html.IFRAME'>"
p6180
sS'TD'
p6181
S"<class 'gluon.html.TD'>"
p6182
sS'IS_URL'
p6183
S"<class 'gluon.validators.IS_URL'>"
p6184
sS'A'
S"<class 'gluon.html.A'>"
p6185
sS'STYLE'
p6186
S"<class 'gluon.html.STYLE'>"
p6187
sS'IS_DATETIME_IN_RANGE'
p6188
S"<class 'gluon.validators.IS_DATETIME_IN_RANGE'>"
p6189
sS'IS_IMAGE'
p6190
S"<class 'gluon.validators.IS_IMAGE'>"
p6191
sS'I'
S"<class 'gluon.html.I'>"
p6192
sS'crud'
p6193
S'<gluon.tools.Crud object>'
p6194
sS'IS_NOT_IN_DB'
p6195
S"<class 'gluon.validators.IS_NOT_IN_DB'>"
p6196
sg3849
S"<Storage {'body': <cStringIO.StringO object at 0...da> at 0xb47c8e2c>, 'view': 'default/show.html'}>"
p6197
sS'THEAD'
p6198
S"<class 'gluon.html.THEAD'>"
p6199
sS'IS_NULL_OR'
p6200
S"<class 'gluon.validators.IS_EMPTY_OR'>"
p6201
sS'IS_FLOAT_IN_RANGE'
p6202
S"<class 'gluon.validators.IS_FLOAT_IN_RANGE'>"
p6203
sS'IS_EXPR'
p6204
S"<class 'gluon.validators.IS_EXPR'>"
p6205
sS'T'
S'<gluon.languages.translator object>'
p6206
sS'IS_IN_SET'
p6207
S"<class 'gluon.validators.IS_IN_SET'>"
p6208
sS'IS_UPLOAD_FILENAME'
p6209
S"<class 'gluon.validators.IS_UPLOAD_FILENAME'>"
p6210
sS'IS_DECIMAL_IN_RANGE'
p6211
S"<class 'gluon.validators.IS_DECIMAL_IN_RANGE'>"
p6212
sssS'traceback'
p6213
S'Traceback (most recent call last):\n  File "/home/manikanta/Study/web2py/gluon/restricted.py", line 205, in restricted\n    exec ccode in environment\n  File "/home/manikanta/Study/web2py/applications/Just_Click_/views/default/show.html", line 90, in <module>\nAttributeError: \'NoneType\' object has no attribute \'uploaded_by\'\n'
p6214
s.