(dp1
S'output'
p2
S"<type 'exceptions.AttributeError'> 'NoneType' object has no attribute 'uploaded_by'"
p3
sS'layer'
p4
S'/home/manikanta/Study/web2py/applications/Just_Click_/views/default/show.html'
p5
sS'code'
p6
S'response.write(\'<!DOCTYPE html>\\n<!-- paulirish.com/2008/conditional-stylesheets-vs-css-hacks-answer-neither/ -->\\n<!--[if lt IE 7]><html class="ie ie6 ie-lte9 ie-lte8 ie-lte7 no-js" lang="\', escape=False)\nresponse.write(T.accepted_language or \'en\')\nresponse.write(\'"> <![endif]-->\\n<!--[if IE 7]><html class="ie ie7 ie-lte9 ie-lte8 ie-lte7 no-js" lang="\', escape=False)\nresponse.write(T.accepted_language or \'en\')\nresponse.write(\'"> <![endif]-->\\n<!--[if IE 8]><html class="ie ie8 ie-lte9 ie-lte8 no-js" lang="\', escape=False)\nresponse.write(T.accepted_language or \'en\')\nresponse.write(\'"> <![endif]-->\\n<!--[if IE 9]><html class="ie9 ie-lte9 no-js" lang="\', escape=False)\nresponse.write(T.accepted_language or \'en\')\nresponse.write(\'"> <![endif]-->\\n<!--[if (gt IE 9)|!(IE)]><!--> <html class="no-js" lang="\', escape=False)\nresponse.write(T.accepted_language or \'en\')\nresponse.write(\'"> <!--<![endif]-->\\n<head>\\n  <meta charset="utf-8" />\\n  <!-- www.phpied.com/conditional-comments-block-downloads/ -->\\n  <!-- Always force latest IE rendering engine\\n\\t   (even in intranet) & Chrome Frame\\n\\t   Remove this if you use the .htaccess -->\\n  <!--[if IE]>\\n    <meta http-equiv="X-UA-Compatible" content="IE=edge\', escape=False)\nresponse.write(not request.is_local and \',chrome=1\' or \'\')\nresponse.write(\'">\\n  <![endif]-->\\n  \\n  <title>\', escape=False)\nresponse.write(response.title or request.application)\nresponse.write(\'</title>\\n  \\n  <!-- http://dev.w3.org/html5/markup/meta.name.html -->\\n  <meta name="application-name" content="\', escape=False)\nresponse.write(request.application)\nresponse.write(\'" />\\n  \\n  <!-- Speaking of Google, don\\\'t forget to set your site up:\\n\\t   http://google.com/webmasters -->\\n  <meta name="google-site-verification" content="" />\\n\\n  <!--  Mobile Viewport Fix\\n\\t  j.mp/mobileviewport & davidbcalhoun.com/2010/viewport-metatag\\n\\t  device-width: Occupy full width of the screen in its current orientation\\n\\t  initial-scale = 1.0 retains dimensions instead of zooming out if page height > device height\\n\\t  user-scalable = yes allows the user to zoom in -->\\n  <meta name="viewport" content="width=device-width, initial-scale=1.0, user-scalable=yes">\\n  \\n  <!-- Place favicon.ico and apple-touch-icon.png in the root of your domain and delete these references -->\\n  <link rel="shortcut icon" href="\', escape=False)\nresponse.write(URL(\'static\',\'favicon.ico\'))\nresponse.write(\'" type="image/x-icon">\\n  <link rel="apple-touch-icon" href="\', escape=False)\nresponse.write(URL(\'static\',\'favicon.png\'))\nresponse.write(\'">\\n\\n  <!-- All JavaScript at the bottom, except for Modernizr which enables \\n\\t   HTML5 elements & feature detects -->\\n  <script src="\', escape=False)\nresponse.write(URL(\'static\',\'js/modernizr.custom.js\'))\nresponse.write(\'"></script>  \\n\\n  <!-- include stylesheets -->\\n  \', escape=False)\nresponse.files.append(URL(\'static\',\'css/skeleton.css\'))\nresponse.files.append(URL(\'static\',\'css/web2py.css\'))\nif response.menu:\n    response.files.append(URL(\'static\',\'css/superfish.css\'))\n    response.files.append(URL(\'static\',\'js/superfish.js\'))\n    pass\nresponse.write(\'\\n\\n  \', escape=False)\nresponse.write(\'<script type="text/javascript"><!--\\n    // These variables are used by the web2py_ajax_init function in web2py_ajax.js (which is loaded below).\\n    var w2p_ajax_confirm_message = "\', escape=False)\nresponse.write(T(\'Are you sure you want to delete this object?\'))\nresponse.write(\'";\\n    var w2p_ajax_date_format = "\', escape=False)\nresponse.write(T(\'%Y-%m-%d\'))\nresponse.write(\'";\\n    var w2p_ajax_datetime_format = "\', escape=False)\nresponse.write(T(\'%Y-%m-%d %H:%M:%S\'))\nresponse.write(\'";\\n    //--></script>\\n\', escape=False)\nresponse.files.insert(0,URL(\'static\',\'js/jquery.js\'))\nresponse.files.insert(1,URL(\'static\',\'css/calendar.css\'))\nresponse.files.insert(2,URL(\'static\',\'js/calendar.js\'))\nresponse.files.insert(3,URL(\'static\',\'js/web2py.js\'))\nresponse.include_meta()\nresponse.include_files()\nresponse.write(\'\\n\', escape=False)\nresponse.write(\'\\n\\n  \', escape=False)\nif response.menu:\n    response.write(\'\\n  <script type="text/javascript">\\n    jQuery(function(){ jQuery(\\\'ul.sf-menu\\\').supersubs({minWidth:12,maxWidth:30,extraWidth:3}).superfish(); });\\n  </script>\\n  \', escape=False)\n    pass\nresponse.write(\'\\n\\n  \', escape=False)\n# using sidebars need to know what sidebar you want to use\nleft_sidebar_enabled = globals().get(\'left_sidebar_enabled\',False)\nright_sidebar_enabled = globals().get(\'right_sidebar_enabled\',False)\nmiddle_columns = {0:\'sixteen\',1:\'twelve\',2:\'eight\'}[\n(left_sidebar_enabled and 1 or 0)+(right_sidebar_enabled and 1 or 0)]\nresponse.write(\'\\n\\n  <!-- uncomment here to load jquery-ui\\n  <link rel="stylesheet" href="http://ajax.googleapis.com/ajax/libs/jqueryui/1.8.16/themes/base/jquery-ui.css" type="text/css" media="all" />\\n  <script src="http://ajax.googleapis.com/ajax/libs/jqueryui/1.8.16/jquery-ui.min.js" type="text/javascript"></script>\\n  uncomment to load jquery-ui //-->\\n</head>\\n<body>\\n  <div class="wrapper"><!-- for sticky footer -->\\n  \\n    <div class="topbar">\\n      <div class="container">    \\n        <div class="sixteen columns">\\n          <div id="navbar">\', escape=False)\nresponse.write(\'auth\' in globals() and auth.navbar(separators=(\' \',\' | \',\'\')))\nresponse.write(\'</div>\\n          \', escape=False)\nis_mobile=request.user_agent().is_mobile\nresponse.write(\'\\n\\t  \', escape=False)\nif response.menu:\n    response.write(\'\\n          <div id="menu">\\n             \', escape=False)\n    response.write(MENU(response.menu, _class=\'mobile-menu\' if is_mobile else \'sf-menu\',mobile=is_mobile))\n    response.write(\'\\n          </div>\\n          \', escape=False)\n    pass\nresponse.write(\'\\n        </div>\\n      </div>\\n    </div><!-- topbar -->\\n    \\n    <div class="flash">\', escape=False)\nresponse.write(response.flash or \'\')\nresponse.write(\'</div>\\n    \\n    <div class="header">\\n      <div class="container">         \\n        <div class="sixteen columns">\\n          <h1 class="remove-bottom" style="margin-top: .5em;">\\n          \', escape=False)\nresponse.write(response.title or request.application)\nresponse.write(\'\\n          </h1>\\n          <h5>\', escape=False)\nresponse.write(response.subtitle or \'\')\nresponse.write(\'</h5>\\n        </div>\\n        <div class="sixteen columns">\\n          <div class="statusbar clearfix">\\n            \', escape=False)\nresponse.write(\'\\n            <div class="breadcrumbs">\', escape=False)\nresponse.write(request.function.replace(\'_\', \' \').title())\nresponse.write(\'</div>\\n            \', escape=False)\nresponse.write(\'\\n            <!-- AddToAny BEGIN -->\\n            <div style="float:right; padding-top: .25em;" class="a2a_kit a2a_default_style">\\n            <a class="a2a_dd" href="http://www.addtoany.com/share_save">Share</a></div>\\n            <script type="text/javascript" src="http://static.addtoany.com/menu/page.js"></script>\\n            <!-- AddToAny END -->\\n          </div>\\n        </div>\\n      </div>\\n    </div>\\n\\n    <div class="main">\\n      <div class="container">                 \\n        \', escape=False)\nif left_sidebar_enabled:\n    response.write(\'\\n        <div class="four columns left-sidebar">\\n          \', escape=False)\n    response.write(\'\\n          <h3>Left Sidebar</h3>\\n          <p></p>\\n          \', escape=False)\n    response.write(\'\\n        </div>\\n        \', escape=False)\n    pass\nresponse.write(\'\\n        \\n        <div class="\', escape=False)\nresponse.write(middle_columns)\nresponse.write(\' columns center">\\n          \', escape=False)\nresponse.write(\'\\n          \', escape=False)\nresponse.write(\'\\n\\n<p>\\n\', escape=False)\nresponse.write(LI(A("UPLOAD IMAGE HERE " , _href=URL("upload" , args=123))))\nresponse.write(\'\\n<p>\\n\', escape=False)\nw = auth.user.first_name+\'_\'+auth.user.last_name\nresponse.write(\'\\n\\n<table border=0>\\n<tr>\\n<td>\\n<h4>Image Posted by \', escape=False)\nresponse.write(image.uploaded_by)\nresponse.write(\': \', escape=False)\nresponse.write(image.title)\nresponse.write(\'</h4>\\n<center>\\n<img width="600px"\\n     src="\', escape=False)\nresponse.write(URL(\'download\', args=image.file))\nresponse.write(\'" />\\n</center>\\nNO. OF LIKES : \', escape=False)\nresponse.write(image.likecount)\nresponse.write(\'\\n<table border=0>\\n<tr>\\n<td>\\n\', escape=False)\nif not db(w==db.like.name)(image.id==db.like.imageid).select(db.like.ALL):\n    response.write(\'\\n\', escape=False)\n    response.write(LI(A(\'Like\' , _href=URL("like" , args=[w,image.id,image.likecount+1]))))\n    response.write(\'\\n\', escape=False)\n    pass\nresponse.write(\'\\n</td>\\n<td>\\n\', escape=False)\nresponse.write(LI(A(\'Show Comments\' , _href=URL("showimagecomments" , args=image.id))))\nresponse.write(\'\\n</td>\\n<td>\\n\', escape=False)\nif image.uploaded_by == auth.user.first_name :\n    response.write(\'\\n\', escape=False)\n    response.write(LI(A(\'Delete\' , _href=URL("delete" , args=[image.uploaded_by,image.id]))))\n    response.write(\'\\n\', escape=False)\n    pass\nresponse.write(\'\\n</td>\\n<td>\\n\', escape=False)\nresponse.write(LI(A(\'Delete as admin\' , _href=URL("deleteasadmin" , args=image.id))))\nresponse.write(\'\\n</td>\\n</tr>\\n</table>\\n</td>\\n<td>\\n</td>\\n<td>\\n<h4>All images</h4>\\n\', escape=False)\nfor image in images:\n    response.write(\'\\n    \', escape=False)\n    response.write(LI(A(image.title , _href=URL(\'show\' , args=image.id))))\n    response.write(\'\\n\', escape=False)\n    pass\nresponse.write(\'\\n</td>\\n</tr>\\n</table>\\n\', escape=False)\nresponse.write(\'\\n          \', escape=False)\nresponse.write(\'\\n        </div>\\n        \\n        \', escape=False)\nif right_sidebar_enabled:\n    response.write(\'\\n        <div class="four columns">\\n          \', escape=False)\n    response.write(\'\\n          <h3>Right Sidebar</h3>\\n          <p></p>\\n          \', escape=False)\n    response.write(\'\\n        </div>    \\n        \', escape=False)\n    pass\nresponse.write(\'\\n        \\n      </div><!-- container -->\\n    </div><!-- main -->\\n    \\n    <div class="push"></div>\\n  </div><!-- wrapper -->\\n\\n  <div class="footer">\\n    <div class="container">    \\n      <div class="sixteen columns">\\n        \', escape=False)\nresponse.write(\' <!-- this is default footer -->\\n        <div class="footer-content clearfix">\\n          <div class="copyright">\', escape=False)\nresponse.write(T(\'Copyright\'))\nresponse.write(\' &#169; 2011</div>\\n          <div style="float: right;">\\n            <a href="http://www.web2py.com/">\\n            <img style="padding-bottom: 0;" src="\', escape=False)\nresponse.write(URL(\'static\',\'images/poweredby.png\'))\nresponse.write(\'"/>\\n            </a>\\n          </div>\\n        </div>\\n        \', escape=False)\nresponse.write(\'\\t\\n      </div>\\n    </div><!-- container -->\\n  </div><!-- footer -->\\n  \\n  <!--[if lt IE 7 ]>\\n\\t<script src="\', escape=False)\nresponse.write(URL(\'static\',\'js/dd_belatedpng.js\'))\nresponse.write(\'"></script>\\n\\t<script> DD_belatedPNG.fix(\\\'img, .png_bg\\\'); //fix any <img> or .png_bg background-images </script>\\n\\t<![endif]-->\\n  \', escape=False)\nif response.google_analytics_id:\n    response.write(\'<script type="text/javascript"> var _gaq = _gaq || []; _gaq.push([\\\'_setAccount\\\', \\\'\', escape=False)\n    response.write(response.google_analytics_id)\n    response.write("\']); _gaq.push([\'_trackPageview\']); (function() { var ga = document.createElement(\'script\'); ga.type = \'text/javascript\'; ga.async = true; ga.src = (\'https:\' == document.location.protocol ? \'https://ssl\' : \'http://www\') + \'.google-analytics.com/ga.js\'; var s = document.getElementsByTagName(\'script\')[0]; s.parentNode.insertBefore(ga, s); })(); </script> ", escape=False)\n    pass\nresponse.write(\'\\n</body>\\n</html>\\n\', escape=False)'
p7
sS'snapshot'
p8
(dp9
S'exception'
p10
(dp11
S'__hash__'
p12
S"<method-wrapper '__hash__' of exceptions.AttributeError object>"
p13
sS'__setattr__'
p14
S"<method-wrapper '__setattr__' of exceptions.AttributeError object>"
p15
sS'__reduce_ex__'
p16
S'<built-in method __reduce_ex__ of exceptions.AttributeError object>'
p17
sS'__getslice__'
p18
S"<method-wrapper '__getslice__' of exceptions.AttributeError object>"
p19
sS'__getitem__'
p20
S"<method-wrapper '__getitem__' of exceptions.AttributeError object>"
p21
sS'__setstate__'
p22
S'<built-in method __setstate__ of exceptions.AttributeError object>'
p23
sS'__reduce__'
p24
S'<built-in method __reduce__ of exceptions.AttributeError object>'
p25
sS'__str__'
p26
S"<method-wrapper '__str__' of exceptions.AttributeError object>"
p27
sS'__format__'
p28
S'<built-in method __format__ of exceptions.AttributeError object>'
p29
sS'__getattribute__'
p30
S"<method-wrapper '__getattribute__' of exceptions.AttributeError object>"
p31
sS'__class__'
p32
S"<type 'exceptions.AttributeError'>"
p33
sS'__unicode__'
p34
S'<built-in method __unicode__ of exceptions.AttributeError object>'
p35
sS'__delattr__'
p36
S"<method-wrapper '__delattr__' of exceptions.AttributeError object>"
p37
sS'__subclasshook__'
p38
S'<built-in method __subclasshook__ of type object>'
p39
sS'__repr__'
p40
S"<method-wrapper '__repr__' of exceptions.AttributeError object>"
p41
sS'args'
p42
S'("\'NoneType\' object has no attribute \'uploaded_by\'",)'
p43
sS'__dict__'
p44
S'{}'
p45
sS'__sizeof__'
p46
S'<built-in method __sizeof__ of exceptions.AttributeError object>'
p47
sS'__doc__'
p48
S"'Attribute not found.'"
p49
sS'__init__'
p50
S"<method-wrapper '__init__' of exceptions.AttributeError object>"
p51
sS'__new__'
p52
S'<built-in method __new__ of type object>'
p53
ssS'evalue'
p54
S"'NoneType' object has no attribute 'uploaded_by'"
p55
sS'request'
p56
ccopy_reg
_reconstructor
p57
(cgluon.html
BEAUTIFY
p58
c__builtin__
object
p59
NtRp60
(dp61
S'attributes'
p62
(dp63
sS'components'
p64
(lp65
g57
(cgluon.html
TABLE
p66
g59
NtRp67
(dp68
g62
(dp69
S'level'
p70
I5
ssS'parent'
p71
Nsg64
(lp72
g57
(cgluon.html
TR
p73
g59
NtRp74
(dp75
g62
(dp76
sg71
g67
sg64
(lp77
g57
(cgluon.html
TD
p78
g59
NtRp79
(dp80
g62
(dp81
S'_style'
p82
S'font-weight:bold;vertical-align:top'
p83
ssg71
g74
sg64
(lp84
S'ajax'
p85
asbag57
(g78
g59
NtRp86
(dp87
g62
(dp88
S'_valign'
p89
S'top'
p90
ssg71
g74
sg64
(lp91
S':'
asbag57
(g78
g59
NtRp92
(dp93
g62
(dp94
sg71
g74
sg64
(lp95
g57
(g58
g59
NtRp96
(dp97
g62
(dp98
g70
I5
ssg71
g92
sg64
(lp99
S'False'
p100
asbasbasbag57
(g73
g59
NtRp101
(dp102
g62
(dp103
sg71
g67
sg64
(lp104
g57
(g78
g59
NtRp105
(dp106
g62
(dp107
g82
g83
ssg71
g101
sg64
(lp108
S'application'
p109
asbag57
(g78
g59
NtRp110
(dp111
g62
(dp112
g89
g90
ssg71
g101
sg64
(lp113
S':'
asbag57
(g78
g59
NtRp114
(dp115
g62
(dp116
sg71
g101
sg64
(lp117
g57
(g58
g59
NtRp118
(dp119
g62
(dp120
g70
I5
ssg71
g114
sg64
(lp121
S'Just_Click_'
p122
asbasbasbag57
(g73
g59
NtRp123
(dp124
g62
(dp125
sg71
g67
sg64
(lp126
g57
(g78
g59
NtRp127
(dp128
g62
(dp129
g82
g83
ssg71
g123
sg64
(lp130
g42
asbag57
(g78
g59
NtRp131
(dp132
g62
(dp133
g89
g90
ssg71
g123
sg64
(lp134
S':'
asbag57
(g78
g59
NtRp135
(dp136
g62
(dp137
sg71
g123
sg64
(lp138
g57
(g58
g59
NtRp139
(dp140
g62
(dp141
g70
I5
ssg71
g135
sg64
(lp142
g57
(g66
g59
NtRp143
(dp144
g62
(dp145
g70
I4
ssg71
Nsg64
(lp146
g57
(g73
g59
NtRp147
(dp148
g62
(dp149
sg71
g143
sg64
(lp150
g57
(g78
g59
NtRp151
(dp152
g62
(dp153
sg71
g147
sg64
(lp154
g57
(g58
g59
NtRp155
(dp156
g62
(dp157
g70
I4
ssg71
g151
sg64
(lp158
S'user'
p159
asbasbasbasbasbasbasbag57
(g73
g59
NtRp160
(dp161
g62
(dp162
sg71
g67
sg64
(lp163
g57
(g78
g59
NtRp164
(dp165
g62
(dp166
g82
g83
ssg71
g160
sg64
(lp167
S'body'
p168
asbag57
(g78
g59
NtRp169
(dp170
g62
(dp171
g89
g90
ssg71
g160
sg64
(lp172
S':'
asbag57
(g78
g59
NtRp173
(dp174
g62
(dp175
sg71
g160
sg64
(lp176
g57
(g58
g59
NtRp177
(dp178
g62
(dp179
g70
I5
ssg71
g173
sg64
(lp180
S'<cStringIO.StringO object at 0xaf37f6c0>'
p181
asbasbasbag57
(g73
g59
NtRp182
(dp183
g62
(dp184
sg71
g67
sg64
(lp185
g57
(g78
g59
NtRp186
(dp187
g62
(dp188
g82
g83
ssg71
g182
sg64
(lp189
S'client'
p190
asbag57
(g78
g59
NtRp191
(dp192
g62
(dp193
g89
g90
ssg71
g182
sg64
(lp194
S':'
asbag57
(g78
g59
NtRp195
(dp196
g62
(dp197
sg71
g182
sg64
(lp198
g57
(g58
g59
NtRp199
(dp200
g62
(dp201
g70
I5
ssg71
g195
sg64
(lp202
S'127.0.0.1'
p203
asbasbasbag57
(g73
g59
NtRp204
(dp205
g62
(dp206
sg71
g67
sg64
(lp207
g57
(g78
g59
NtRp208
(dp209
g62
(dp210
g82
g83
ssg71
g204
sg64
(lp211
S'controller'
p212
asbag57
(g78
g59
NtRp213
(dp214
g62
(dp215
g89
g90
ssg71
g204
sg64
(lp216
S':'
asbag57
(g78
g59
NtRp217
(dp218
g62
(dp219
sg71
g204
sg64
(lp220
g57
(g58
g59
NtRp221
(dp222
g62
(dp223
g70
I5
ssg71
g217
sg64
(lp224
S'default'
p225
asbasbasbag57
(g73
g59
NtRp226
(dp227
g62
(dp228
sg71
g67
sg64
(lp229
g57
(g78
g59
NtRp230
(dp231
g62
(dp232
g82
g83
ssg71
g226
sg64
(lp233
S'cookies'
p234
asbag57
(g78
g59
NtRp235
(dp236
g62
(dp237
g89
g90
ssg71
g226
sg64
(lp238
S':'
asbag57
(g78
g59
NtRp239
(dp240
g62
(dp241
sg71
g226
sg64
(lp242
g57
(g58
g59
NtRp243
(dp244
g62
(dp245
g70
I5
ssg71
g239
sg64
(lp246
g57
(g66
g59
NtRp247
(dp248
g62
(dp249
g70
I4
ssg71
Nsg64
(lp250
g57
(g73
g59
NtRp251
(dp252
g62
(dp253
sg71
g247
sg64
(lp254
g57
(g78
g59
NtRp255
(dp256
g62
(dp257
g82
g83
ssg71
g251
sg64
(lp258
S'session_id_admin'
p259
asbag57
(g78
g59
NtRp260
(dp261
g62
(dp262
g89
g90
ssg71
g251
sg64
(lp263
S':'
asbag57
(g78
g59
NtRp264
(dp265
g62
(dp266
sg71
g251
sg64
(lp267
g57
(g58
g59
NtRp268
(dp269
g62
(dp270
g70
I4
ssg71
g264
sg64
(lp271
g57
(g66
g59
NtRp272
(dp273
g62
(dp274
g70
I3
ssg71
Nsg64
(lp275
g57
(g73
g59
NtRp276
(dp277
g62
(dp278
sg71
g272
sg64
(lp279
g57
(g78
g59
NtRp280
(dp281
g62
(dp282
g82
g83
ssg71
g276
sg64
(lp283
S'comment'
p284
asbag57
(g78
g59
NtRp285
(dp286
g62
(dp287
g89
g90
ssg71
g276
sg64
(lp288
S':'
asbag57
(g78
g59
NtRp289
(dp290
g62
(dp291
sg71
g276
sg64
(lp292
g57
(g58
g59
NtRp293
(dp294
g62
(dp295
g70
I3
ssg71
g289
sg64
(lp296
S''
asbasbasbag57
(g73
g59
NtRp297
(dp298
g62
(dp299
sg71
g272
sg64
(lp300
g57
(g78
g59
NtRp301
(dp302
g62
(dp303
g82
g83
ssg71
g297
sg64
(lp304
S'domain'
p305
asbag57
(g78
g59
NtRp306
(dp307
g62
(dp308
g89
g90
ssg71
g297
sg64
(lp309
S':'
asbag57
(g78
g59
NtRp310
(dp311
g62
(dp312
sg71
g297
sg64
(lp313
g57
(g58
g59
NtRp314
(dp315
g62
(dp316
g70
I3
ssg71
g310
sg64
(lp317
S''
asbasbasbag57
(g73
g59
NtRp318
(dp319
g62
(dp320
sg71
g272
sg64
(lp321
g57
(g78
g59
NtRp322
(dp323
g62
(dp324
g82
g83
ssg71
g318
sg64
(lp325
S'expires'
p326
asbag57
(g78
g59
NtRp327
(dp328
g62
(dp329
g89
g90
ssg71
g318
sg64
(lp330
S':'
asbag57
(g78
g59
NtRp331
(dp332
g62
(dp333
sg71
g318
sg64
(lp334
g57
(g58
g59
NtRp335
(dp336
g62
(dp337
g70
I3
ssg71
g331
sg64
(lp338
S''
asbasbasbag57
(g73
g59
NtRp339
(dp340
g62
(dp341
sg71
g272
sg64
(lp342
g57
(g78
g59
NtRp343
(dp344
g62
(dp345
g82
g83
ssg71
g339
sg64
(lp346
S'httponly'
p347
asbag57
(g78
g59
NtRp348
(dp349
g62
(dp350
g89
g90
ssg71
g339
sg64
(lp351
S':'
asbag57
(g78
g59
NtRp352
(dp353
g62
(dp354
sg71
g339
sg64
(lp355
g57
(g58
g59
NtRp356
(dp357
g62
(dp358
g70
I3
ssg71
g352
sg64
(lp359
S''
asbasbasbag57
(g73
g59
NtRp360
(dp361
g62
(dp362
sg71
g272
sg64
(lp363
g57
(g78
g59
NtRp364
(dp365
g62
(dp366
g82
g83
ssg71
g360
sg64
(lp367
S'max-age'
p368
asbag57
(g78
g59
NtRp369
(dp370
g62
(dp371
g89
g90
ssg71
g360
sg64
(lp372
S':'
asbag57
(g78
g59
NtRp373
(dp374
g62
(dp375
sg71
g360
sg64
(lp376
g57
(g58
g59
NtRp377
(dp378
g62
(dp379
g70
I3
ssg71
g373
sg64
(lp380
S''
asbasbasbag57
(g73
g59
NtRp381
(dp382
g62
(dp383
sg71
g272
sg64
(lp384
g57
(g78
g59
NtRp385
(dp386
g62
(dp387
g82
g83
ssg71
g381
sg64
(lp388
S'path'
p389
asbag57
(g78
g59
NtRp390
(dp391
g62
(dp392
g89
g90
ssg71
g381
sg64
(lp393
S':'
asbag57
(g78
g59
NtRp394
(dp395
g62
(dp396
sg71
g381
sg64
(lp397
g57
(g58
g59
NtRp398
(dp399
g62
(dp400
g70
I3
ssg71
g394
sg64
(lp401
S''
asbasbasbag57
(g73
g59
NtRp402
(dp403
g62
(dp404
sg71
g272
sg64
(lp405
g57
(g78
g59
NtRp406
(dp407
g62
(dp408
g82
g83
ssg71
g402
sg64
(lp409
S'secure'
p410
asbag57
(g78
g59
NtRp411
(dp412
g62
(dp413
g89
g90
ssg71
g402
sg64
(lp414
S':'
asbag57
(g78
g59
NtRp415
(dp416
g62
(dp417
sg71
g402
sg64
(lp418
g57
(g58
g59
NtRp419
(dp420
g62
(dp421
g70
I3
ssg71
g415
sg64
(lp422
S''
asbasbasbag57
(g73
g59
NtRp423
(dp424
g62
(dp425
sg71
g272
sg64
(lp426
g57
(g78
g59
NtRp427
(dp428
g62
(dp429
g82
g83
ssg71
g423
sg64
(lp430
S'version'
p431
asbag57
(g78
g59
NtRp432
(dp433
g62
(dp434
g89
g90
ssg71
g423
sg64
(lp435
S':'
asbag57
(g78
g59
NtRp436
(dp437
g62
(dp438
sg71
g423
sg64
(lp439
g57
(g58
g59
NtRp440
(dp441
g62
(dp442
g70
I3
ssg71
g436
sg64
(lp443
S''
asbasbasbasbasbasbasbag57
(g73
g59
NtRp444
(dp445
g62
(dp446
sg71
g247
sg64
(lp447
g57
(g78
g59
NtRp448
(dp449
g62
(dp450
g82
g83
ssg71
g444
sg64
(lp451
S'session_id_just_click_'
p452
asbag57
(g78
g59
NtRp453
(dp454
g62
(dp455
g89
g90
ssg71
g444
sg64
(lp456
S':'
asbag57
(g78
g59
NtRp457
(dp458
g62
(dp459
sg71
g444
sg64
(lp460
g57
(g58
g59
NtRp461
(dp462
g62
(dp463
g70
I4
ssg71
g457
sg64
(lp464
g57
(g66
g59
NtRp465
(dp466
g62
(dp467
g70
I3
ssg71
Nsg64
(lp468
g57
(g73
g59
NtRp469
(dp470
g62
(dp471
sg71
g465
sg64
(lp472
g57
(g78
g59
NtRp473
(dp474
g62
(dp475
g82
g83
ssg71
g469
sg64
(lp476
g284
asbag57
(g78
g59
NtRp477
(dp478
g62
(dp479
g89
g90
ssg71
g469
sg64
(lp480
S':'
asbag57
(g78
g59
NtRp481
(dp482
g62
(dp483
sg71
g469
sg64
(lp484
g57
(g58
g59
NtRp485
(dp486
g62
(dp487
g70
I3
ssg71
g481
sg64
(lp488
S''
asbasbasbag57
(g73
g59
NtRp489
(dp490
g62
(dp491
sg71
g465
sg64
(lp492
g57
(g78
g59
NtRp493
(dp494
g62
(dp495
g82
g83
ssg71
g489
sg64
(lp496
g305
asbag57
(g78
g59
NtRp497
(dp498
g62
(dp499
g89
g90
ssg71
g489
sg64
(lp500
S':'
asbag57
(g78
g59
NtRp501
(dp502
g62
(dp503
sg71
g489
sg64
(lp504
g57
(g58
g59
NtRp505
(dp506
g62
(dp507
g70
I3
ssg71
g501
sg64
(lp508
S''
asbasbasbag57
(g73
g59
NtRp509
(dp510
g62
(dp511
sg71
g465
sg64
(lp512
g57
(g78
g59
NtRp513
(dp514
g62
(dp515
g82
g83
ssg71
g509
sg64
(lp516
g326
asbag57
(g78
g59
NtRp517
(dp518
g62
(dp519
g89
g90
ssg71
g509
sg64
(lp520
S':'
asbag57
(g78
g59
NtRp521
(dp522
g62
(dp523
sg71
g509
sg64
(lp524
g57
(g58
g59
NtRp525
(dp526
g62
(dp527
g70
I3
ssg71
g521
sg64
(lp528
S''
asbasbasbag57
(g73
g59
NtRp529
(dp530
g62
(dp531
sg71
g465
sg64
(lp532
g57
(g78
g59
NtRp533
(dp534
g62
(dp535
g82
g83
ssg71
g529
sg64
(lp536
g347
asbag57
(g78
g59
NtRp537
(dp538
g62
(dp539
g89
g90
ssg71
g529
sg64
(lp540
S':'
asbag57
(g78
g59
NtRp541
(dp542
g62
(dp543
sg71
g529
sg64
(lp544
g57
(g58
g59
NtRp545
(dp546
g62
(dp547
g70
I3
ssg71
g541
sg64
(lp548
S''
asbasbasbag57
(g73
g59
NtRp549
(dp550
g62
(dp551
sg71
g465
sg64
(lp552
g57
(g78
g59
NtRp553
(dp554
g62
(dp555
g82
g83
ssg71
g549
sg64
(lp556
g368
asbag57
(g78
g59
NtRp557
(dp558
g62
(dp559
g89
g90
ssg71
g549
sg64
(lp560
S':'
asbag57
(g78
g59
NtRp561
(dp562
g62
(dp563
sg71
g549
sg64
(lp564
g57
(g58
g59
NtRp565
(dp566
g62
(dp567
g70
I3
ssg71
g561
sg64
(lp568
S''
asbasbasbag57
(g73
g59
NtRp569
(dp570
g62
(dp571
sg71
g465
sg64
(lp572
g57
(g78
g59
NtRp573
(dp574
g62
(dp575
g82
g83
ssg71
g569
sg64
(lp576
g389
asbag57
(g78
g59
NtRp577
(dp578
g62
(dp579
g89
g90
ssg71
g569
sg64
(lp580
S':'
asbag57
(g78
g59
NtRp581
(dp582
g62
(dp583
sg71
g569
sg64
(lp584
g57
(g58
g59
NtRp585
(dp586
g62
(dp587
g70
I3
ssg71
g581
sg64
(lp588
S''
asbasbasbag57
(g73
g59
NtRp589
(dp590
g62
(dp591
sg71
g465
sg64
(lp592
g57
(g78
g59
NtRp593
(dp594
g62
(dp595
g82
g83
ssg71
g589
sg64
(lp596
g410
asbag57
(g78
g59
NtRp597
(dp598
g62
(dp599
g89
g90
ssg71
g589
sg64
(lp600
S':'
asbag57
(g78
g59
NtRp601
(dp602
g62
(dp603
sg71
g589
sg64
(lp604
g57
(g58
g59
NtRp605
(dp606
g62
(dp607
g70
I3
ssg71
g601
sg64
(lp608
S''
asbasbasbag57
(g73
g59
NtRp609
(dp610
g62
(dp611
sg71
g465
sg64
(lp612
g57
(g78
g59
NtRp613
(dp614
g62
(dp615
g82
g83
ssg71
g609
sg64
(lp616
g431
asbag57
(g78
g59
NtRp617
(dp618
g62
(dp619
g89
g90
ssg71
g609
sg64
(lp620
S':'
asbag57
(g78
g59
NtRp621
(dp622
g62
(dp623
sg71
g609
sg64
(lp624
g57
(g58
g59
NtRp625
(dp626
g62
(dp627
g70
I3
ssg71
g621
sg64
(lp628
S''
asbasbasbasbasbasbasbag57
(g73
g59
NtRp629
(dp630
g62
(dp631
sg71
g247
sg64
(lp632
g57
(g78
g59
NtRp633
(dp634
g62
(dp635
g82
g83
ssg71
g629
sg64
(lp636
S'session_id_users'
p637
asbag57
(g78
g59
NtRp638
(dp639
g62
(dp640
g89
g90
ssg71
g629
sg64
(lp641
S':'
asbag57
(g78
g59
NtRp642
(dp643
g62
(dp644
sg71
g629
sg64
(lp645
g57
(g58
g59
NtRp646
(dp647
g62
(dp648
g70
I4
ssg71
g642
sg64
(lp649
g57
(g66
g59
NtRp650
(dp651
g62
(dp652
g70
I3
ssg71
Nsg64
(lp653
g57
(g73
g59
NtRp654
(dp655
g62
(dp656
sg71
g650
sg64
(lp657
g57
(g78
g59
NtRp658
(dp659
g62
(dp660
g82
g83
ssg71
g654
sg64
(lp661
g284
asbag57
(g78
g59
NtRp662
(dp663
g62
(dp664
g89
g90
ssg71
g654
sg64
(lp665
S':'
asbag57
(g78
g59
NtRp666
(dp667
g62
(dp668
sg71
g654
sg64
(lp669
g57
(g58
g59
NtRp670
(dp671
g62
(dp672
g70
I3
ssg71
g666
sg64
(lp673
S''
asbasbasbag57
(g73
g59
NtRp674
(dp675
g62
(dp676
sg71
g650
sg64
(lp677
g57
(g78
g59
NtRp678
(dp679
g62
(dp680
g82
g83
ssg71
g674
sg64
(lp681
g305
asbag57
(g78
g59
NtRp682
(dp683
g62
(dp684
g89
g90
ssg71
g674
sg64
(lp685
S':'
asbag57
(g78
g59
NtRp686
(dp687
g62
(dp688
sg71
g674
sg64
(lp689
g57
(g58
g59
NtRp690
(dp691
g62
(dp692
g70
I3
ssg71
g686
sg64
(lp693
S''
asbasbasbag57
(g73
g59
NtRp694
(dp695
g62
(dp696
sg71
g650
sg64
(lp697
g57
(g78
g59
NtRp698
(dp699
g62
(dp700
g82
g83
ssg71
g694
sg64
(lp701
g326
asbag57
(g78
g59
NtRp702
(dp703
g62
(dp704
g89
g90
ssg71
g694
sg64
(lp705
S':'
asbag57
(g78
g59
NtRp706
(dp707
g62
(dp708
sg71
g694
sg64
(lp709
g57
(g58
g59
NtRp710
(dp711
g62
(dp712
g70
I3
ssg71
g706
sg64
(lp713
S''
asbasbasbag57
(g73
g59
NtRp714
(dp715
g62
(dp716
sg71
g650
sg64
(lp717
g57
(g78
g59
NtRp718
(dp719
g62
(dp720
g82
g83
ssg71
g714
sg64
(lp721
g347
asbag57
(g78
g59
NtRp722
(dp723
g62
(dp724
g89
g90
ssg71
g714
sg64
(lp725
S':'
asbag57
(g78
g59
NtRp726
(dp727
g62
(dp728
sg71
g714
sg64
(lp729
g57
(g58
g59
NtRp730
(dp731
g62
(dp732
g70
I3
ssg71
g726
sg64
(lp733
S''
asbasbasbag57
(g73
g59
NtRp734
(dp735
g62
(dp736
sg71
g650
sg64
(lp737
g57
(g78
g59
NtRp738
(dp739
g62
(dp740
g82
g83
ssg71
g734
sg64
(lp741
g368
asbag57
(g78
g59
NtRp742
(dp743
g62
(dp744
g89
g90
ssg71
g734
sg64
(lp745
S':'
asbag57
(g78
g59
NtRp746
(dp747
g62
(dp748
sg71
g734
sg64
(lp749
g57
(g58
g59
NtRp750
(dp751
g62
(dp752
g70
I3
ssg71
g746
sg64
(lp753
S''
asbasbasbag57
(g73
g59
NtRp754
(dp755
g62
(dp756
sg71
g650
sg64
(lp757
g57
(g78
g59
NtRp758
(dp759
g62
(dp760
g82
g83
ssg71
g754
sg64
(lp761
g389
asbag57
(g78
g59
NtRp762
(dp763
g62
(dp764
g89
g90
ssg71
g754
sg64
(lp765
S':'
asbag57
(g78
g59
NtRp766
(dp767
g62
(dp768
sg71
g754
sg64
(lp769
g57
(g58
g59
NtRp770
(dp771
g62
(dp772
g70
I3
ssg71
g766
sg64
(lp773
S''
asbasbasbag57
(g73
g59
NtRp774
(dp775
g62
(dp776
sg71
g650
sg64
(lp777
g57
(g78
g59
NtRp778
(dp779
g62
(dp780
g82
g83
ssg71
g774
sg64
(lp781
g410
asbag57
(g78
g59
NtRp782
(dp783
g62
(dp784
g89
g90
ssg71
g774
sg64
(lp785
S':'
asbag57
(g78
g59
NtRp786
(dp787
g62
(dp788
sg71
g774
sg64
(lp789
g57
(g58
g59
NtRp790
(dp791
g62
(dp792
g70
I3
ssg71
g786
sg64
(lp793
S''
asbasbasbag57
(g73
g59
NtRp794
(dp795
g62
(dp796
sg71
g650
sg64
(lp797
g57
(g78
g59
NtRp798
(dp799
g62
(dp800
g82
g83
ssg71
g794
sg64
(lp801
g431
asbag57
(g78
g59
NtRp802
(dp803
g62
(dp804
g89
g90
ssg71
g794
sg64
(lp805
S':'
asbag57
(g78
g59
NtRp806
(dp807
g62
(dp808
sg71
g794
sg64
(lp809
g57
(g58
g59
NtRp810
(dp811
g62
(dp812
g70
I3
ssg71
g806
sg64
(lp813
S''
asbasbasbasbasbasbasbag57
(g73
g59
NtRp814
(dp815
g62
(dp816
sg71
g247
sg64
(lp817
g57
(g78
g59
NtRp818
(dp819
g62
(dp820
g82
g83
ssg71
g814
sg64
(lp821
S'session_id_welcome'
p822
asbag57
(g78
g59
NtRp823
(dp824
g62
(dp825
g89
g90
ssg71
g814
sg64
(lp826
S':'
asbag57
(g78
g59
NtRp827
(dp828
g62
(dp829
sg71
g814
sg64
(lp830
g57
(g58
g59
NtRp831
(dp832
g62
(dp833
g70
I4
ssg71
g827
sg64
(lp834
g57
(g66
g59
NtRp835
(dp836
g62
(dp837
g70
I3
ssg71
Nsg64
(lp838
g57
(g73
g59
NtRp839
(dp840
g62
(dp841
sg71
g835
sg64
(lp842
g57
(g78
g59
NtRp843
(dp844
g62
(dp845
g82
g83
ssg71
g839
sg64
(lp846
g284
asbag57
(g78
g59
NtRp847
(dp848
g62
(dp849
g89
g90
ssg71
g839
sg64
(lp850
S':'
asbag57
(g78
g59
NtRp851
(dp852
g62
(dp853
sg71
g839
sg64
(lp854
g57
(g58
g59
NtRp855
(dp856
g62
(dp857
g70
I3
ssg71
g851
sg64
(lp858
S''
asbasbasbag57
(g73
g59
NtRp859
(dp860
g62
(dp861
sg71
g835
sg64
(lp862
g57
(g78
g59
NtRp863
(dp864
g62
(dp865
g82
g83
ssg71
g859
sg64
(lp866
g305
asbag57
(g78
g59
NtRp867
(dp868
g62
(dp869
g89
g90
ssg71
g859
sg64
(lp870
S':'
asbag57
(g78
g59
NtRp871
(dp872
g62
(dp873
sg71
g859
sg64
(lp874
g57
(g58
g59
NtRp875
(dp876
g62
(dp877
g70
I3
ssg71
g871
sg64
(lp878
S''
asbasbasbag57
(g73
g59
NtRp879
(dp880
g62
(dp881
sg71
g835
sg64
(lp882
g57
(g78
g59
NtRp883
(dp884
g62
(dp885
g82
g83
ssg71
g879
sg64
(lp886
g326
asbag57
(g78
g59
NtRp887
(dp888
g62
(dp889
g89
g90
ssg71
g879
sg64
(lp890
S':'
asbag57
(g78
g59
NtRp891
(dp892
g62
(dp893
sg71
g879
sg64
(lp894
g57
(g58
g59
NtRp895
(dp896
g62
(dp897
g70
I3
ssg71
g891
sg64
(lp898
S''
asbasbasbag57
(g73
g59
NtRp899
(dp900
g62
(dp901
sg71
g835
sg64
(lp902
g57
(g78
g59
NtRp903
(dp904
g62
(dp905
g82
g83
ssg71
g899
sg64
(lp906
g347
asbag57
(g78
g59
NtRp907
(dp908
g62
(dp909
g89
g90
ssg71
g899
sg64
(lp910
S':'
asbag57
(g78
g59
NtRp911
(dp912
g62
(dp913
sg71
g899
sg64
(lp914
g57
(g58
g59
NtRp915
(dp916
g62
(dp917
g70
I3
ssg71
g911
sg64
(lp918
S''
asbasbasbag57
(g73
g59
NtRp919
(dp920
g62
(dp921
sg71
g835
sg64
(lp922
g57
(g78
g59
NtRp923
(dp924
g62
(dp925
g82
g83
ssg71
g919
sg64
(lp926
g368
asbag57
(g78
g59
NtRp927
(dp928
g62
(dp929
g89
g90
ssg71
g919
sg64
(lp930
S':'
asbag57
(g78
g59
NtRp931
(dp932
g62
(dp933
sg71
g919
sg64
(lp934
g57
(g58
g59
NtRp935
(dp936
g62
(dp937
g70
I3
ssg71
g931
sg64
(lp938
S''
asbasbasbag57
(g73
g59
NtRp939
(dp940
g62
(dp941
sg71
g835
sg64
(lp942
g57
(g78
g59
NtRp943
(dp944
g62
(dp945
g82
g83
ssg71
g939
sg64
(lp946
g389
asbag57
(g78
g59
NtRp947
(dp948
g62
(dp949
g89
g90
ssg71
g939
sg64
(lp950
S':'
asbag57
(g78
g59
NtRp951
(dp952
g62
(dp953
sg71
g939
sg64
(lp954
g57
(g58
g59
NtRp955
(dp956
g62
(dp957
g70
I3
ssg71
g951
sg64
(lp958
S''
asbasbasbag57
(g73
g59
NtRp959
(dp960
g62
(dp961
sg71
g835
sg64
(lp962
g57
(g78
g59
NtRp963
(dp964
g62
(dp965
g82
g83
ssg71
g959
sg64
(lp966
g410
asbag57
(g78
g59
NtRp967
(dp968
g62
(dp969
g89
g90
ssg71
g959
sg64
(lp970
S':'
asbag57
(g78
g59
NtRp971
(dp972
g62
(dp973
sg71
g959
sg64
(lp974
g57
(g58
g59
NtRp975
(dp976
g62
(dp977
g70
I3
ssg71
g971
sg64
(lp978
S''
asbasbasbag57
(g73
g59
NtRp979
(dp980
g62
(dp981
sg71
g835
sg64
(lp982
g57
(g78
g59
NtRp983
(dp984
g62
(dp985
g82
g83
ssg71
g979
sg64
(lp986
g431
asbag57
(g78
g59
NtRp987
(dp988
g62
(dp989
g89
g90
ssg71
g979
sg64
(lp990
S':'
asbag57
(g78
g59
NtRp991
(dp992
g62
(dp993
sg71
g979
sg64
(lp994
g57
(g58
g59
NtRp995
(dp996
g62
(dp997
g70
I3
ssg71
g991
sg64
(lp998
S''
asbasbasbasbasbasbasbasbasbasbasbag57
(g73
g59
NtRp999
(dp1000
g62
(dp1001
sg71
g67
sg64
(lp1002
g57
(g78
g59
NtRp1003
(dp1004
g62
(dp1005
g82
g83
ssg71
g999
sg64
(lp1006
S'env'
p1007
asbag57
(g78
g59
NtRp1008
(dp1009
g62
(dp1010
g89
g90
ssg71
g999
sg64
(lp1011
S':'
asbag57
(g78
g59
NtRp1012
(dp1013
g62
(dp1014
sg71
g999
sg64
(lp1015
g57
(g58
g59
NtRp1016
(dp1017
g62
(dp1018
g70
I5
ssg71
g1012
sg64
(lp1019
g57
(g66
g59
NtRp1020
(dp1021
g62
(dp1022
g70
I4
ssg71
Nsg64
(lp1023
g57
(g73
g59
NtRp1024
(dp1025
g62
(dp1026
sg71
g1020
sg64
(lp1027
g57
(g78
g59
NtRp1028
(dp1029
g62
(dp1030
g82
g83
ssg71
g1024
sg64
(lp1031
S'app_folders'
p1032
asbag57
(g78
g59
NtRp1033
(dp1034
g62
(dp1035
g89
g90
ssg71
g1024
sg64
(lp1036
S':'
asbag57
(g78
g59
NtRp1037
(dp1038
g62
(dp1039
sg71
g1024
sg64
(lp1040
g57
(g58
g59
NtRp1041
(dp1042
g62
(dp1043
g70
I4
ssg71
g1037
sg64
(lp1044
S"set(['/home/manikanta/Study/web2py/applications/Just_Click_/', '/home/manikanta/Study/web2py/applications/admin/', '/home/manikanta/Study/web2py/applications/welcome/'])"
p1045
asbasbasbag57
(g73
g59
NtRp1046
(dp1047
g62
(dp1048
sg71
g1020
sg64
(lp1049
g57
(g78
g59
NtRp1050
(dp1051
g62
(dp1052
g82
g83
ssg71
g1046
sg64
(lp1053
S'applications_parent'
p1054
asbag57
(g78
g59
NtRp1055
(dp1056
g62
(dp1057
g89
g90
ssg71
g1046
sg64
(lp1058
S':'
asbag57
(g78
g59
NtRp1059
(dp1060
g62
(dp1061
sg71
g1046
sg64
(lp1062
g57
(g58
g59
NtRp1063
(dp1064
g62
(dp1065
g70
I4
ssg71
g1059
sg64
(lp1066
S'/home/manikanta/Study/web2py'
p1067
asbasbasbag57
(g73
g59
NtRp1068
(dp1069
g62
(dp1070
sg71
g1020
sg64
(lp1071
g57
(g78
g59
NtRp1072
(dp1073
g62
(dp1074
g82
g83
ssg71
g1068
sg64
(lp1075
S'cmd_args'
p1076
asbag57
(g78
g59
NtRp1077
(dp1078
g62
(dp1079
g89
g90
ssg71
g1068
sg64
(lp1080
S':'
asbag57
(g78
g59
NtRp1081
(dp1082
g62
(dp1083
sg71
g1068
sg64
(lp1084
g57
(g58
g59
NtRp1085
(dp1086
g62
(dp1087
g70
I4
ssg71
g1081
sg64
(lp1088
g57
(g66
g59
NtRp1089
(dp1090
g62
(dp1091
g70
I3
ssg71
Nsg64
(lp1092
sbasbasbasbag57
(g73
g59
NtRp1093
(dp1094
g62
(dp1095
sg71
g1020
sg64
(lp1096
g57
(g78
g59
NtRp1097
(dp1098
g62
(dp1099
g82
g83
ssg71
g1093
sg64
(lp1100
S'cmd_options'
p1101
asbag57
(g78
g59
NtRp1102
(dp1103
g62
(dp1104
g89
g90
ssg71
g1093
sg64
(lp1105
S':'
asbag57
(g78
g59
NtRp1106
(dp1107
g62
(dp1108
sg71
g1093
sg64
(lp1109
g57
(g58
g59
NtRp1110
(dp1111
g62
(dp1112
g70
I4
ssg71
g1106
sg64
(lp1113
S"<Values at 0x91bb7cc: {'verbose': False, 'ip': '127.0.0.1', 'shutdown_timeout': 5, 'taskbar': False, 'nocron': False, 'pid_filename': 'httpserver.pid', 'maxthreads': None, 'softcron': False, 'server_name': 'Manikanta', 'bpython': False, 'nogui': False, 'port': 8000, 'extcron': False, 'debuglevel': 30, 'test': None, 'folder': '/home/manikanta/Study/web2py', 'config': '', 'import_models': False, 'winservice': '', 'shell': None, 'run': '', 'log_filename': 'httpserver.log', 'args': [''], 'socket_timeout': 5, 'ssl_ca_certificate': None, 'scheduler': None, 'profiler_filename': None, 'ssl_private_key': '', 'password': '12345', 'request_queue_size': 5, 'ssl_certificate': '', 'cronjob': False, 'numthreads': None, 'quiet': False, 'interfaces': None, 'minthreads': None, 'timeout': 10, 'plain': False, 'nobanner': False}>"
p1114
asbasbasbag57
(g73
g59
NtRp1115
(dp1116
g62
(dp1117
sg71
g1020
sg64
(lp1118
g57
(g78
g59
NtRp1119
(dp1120
g62
(dp1121
g82
g83
ssg71
g1115
sg64
(lp1122
S'db_sessions'
p1123
asbag57
(g78
g59
NtRp1124
(dp1125
g62
(dp1126
g89
g90
ssg71
g1115
sg64
(lp1127
S':'
asbag57
(g78
g59
NtRp1128
(dp1129
g62
(dp1130
sg71
g1115
sg64
(lp1131
g57
(g58
g59
NtRp1132
(dp1133
g62
(dp1134
g70
I4
ssg71
g1128
sg64
(lp1135
S'set([])'
p1136
asbasbasbag57
(g73
g59
NtRp1137
(dp1138
g62
(dp1139
sg71
g1020
sg64
(lp1140
g57
(g78
g59
NtRp1141
(dp1142
g62
(dp1143
g82
g83
ssg71
g1137
sg64
(lp1144
S'debugging'
p1145
asbag57
(g78
g59
NtRp1146
(dp1147
g62
(dp1148
g89
g90
ssg71
g1137
sg64
(lp1149
S':'
asbag57
(g78
g59
NtRp1150
(dp1151
g62
(dp1152
sg71
g1137
sg64
(lp1153
g57
(g58
g59
NtRp1154
(dp1155
g62
(dp1156
g70
I4
ssg71
g1150
sg64
(lp1157
g100
asbasbasbag57
(g73
g59
NtRp1158
(dp1159
g62
(dp1160
sg71
g1020
sg64
(lp1161
g57
(g78
g59
NtRp1162
(dp1163
g62
(dp1164
g82
g83
ssg71
g1158
sg64
(lp1165
S'gluon_parent'
p1166
asbag57
(g78
g59
NtRp1167
(dp1168
g62
(dp1169
g89
g90
ssg71
g1158
sg64
(lp1170
S':'
asbag57
(g78
g59
NtRp1171
(dp1172
g62
(dp1173
sg71
g1158
sg64
(lp1174
g57
(g58
g59
NtRp1175
(dp1176
g62
(dp1177
g70
I4
ssg71
g1171
sg64
(lp1178
S'/home/manikanta/Study/web2py'
p1179
asbasbasbag57
(g73
g59
NtRp1180
(dp1181
g62
(dp1182
sg71
g1020
sg64
(lp1183
g57
(g78
g59
NtRp1184
(dp1185
g62
(dp1186
g82
g83
ssg71
g1180
sg64
(lp1187
S'http_accept'
p1188
asbag57
(g78
g59
NtRp1189
(dp1190
g62
(dp1191
g89
g90
ssg71
g1180
sg64
(lp1192
S':'
asbag57
(g78
g59
NtRp1193
(dp1194
g62
(dp1195
sg71
g1180
sg64
(lp1196
g57
(g58
g59
NtRp1197
(dp1198
g62
(dp1199
g70
I4
ssg71
g1193
sg64
(lp1200
S'text/html,application/xhtml+xml,application/xml;q=0.9,*/*;q=0.8'
p1201
asbasbasbag57
(g73
g59
NtRp1202
(dp1203
g62
(dp1204
sg71
g1020
sg64
(lp1205
g57
(g78
g59
NtRp1206
(dp1207
g62
(dp1208
g82
g83
ssg71
g1202
sg64
(lp1209
S'http_accept_charset'
p1210
asbag57
(g78
g59
NtRp1211
(dp1212
g62
(dp1213
g89
g90
ssg71
g1202
sg64
(lp1214
S':'
asbag57
(g78
g59
NtRp1215
(dp1216
g62
(dp1217
sg71
g1202
sg64
(lp1218
g57
(g58
g59
NtRp1219
(dp1220
g62
(dp1221
g70
I4
ssg71
g1215
sg64
(lp1222
S'ISO-8859-1,utf-8;q=0.7,*;q=0.3'
p1223
asbasbasbag57
(g73
g59
NtRp1224
(dp1225
g62
(dp1226
sg71
g1020
sg64
(lp1227
g57
(g78
g59
NtRp1228
(dp1229
g62
(dp1230
g82
g83
ssg71
g1224
sg64
(lp1231
S'http_accept_encoding'
p1232
asbag57
(g78
g59
NtRp1233
(dp1234
g62
(dp1235
g89
g90
ssg71
g1224
sg64
(lp1236
S':'
asbag57
(g78
g59
NtRp1237
(dp1238
g62
(dp1239
sg71
g1224
sg64
(lp1240
g57
(g58
g59
NtRp1241
(dp1242
g62
(dp1243
g70
I4
ssg71
g1237
sg64
(lp1244
S'gzip,deflate,sdch'
p1245
asbasbasbag57
(g73
g59
NtRp1246
(dp1247
g62
(dp1248
sg71
g1020
sg64
(lp1249
g57
(g78
g59
NtRp1250
(dp1251
g62
(dp1252
g82
g83
ssg71
g1246
sg64
(lp1253
S'http_accept_language'
p1254
asbag57
(g78
g59
NtRp1255
(dp1256
g62
(dp1257
g89
g90
ssg71
g1246
sg64
(lp1258
S':'
asbag57
(g78
g59
NtRp1259
(dp1260
g62
(dp1261
sg71
g1246
sg64
(lp1262
g57
(g58
g59
NtRp1263
(dp1264
g62
(dp1265
g70
I4
ssg71
g1259
sg64
(lp1266
S'en-US,en;q=0.8'
p1267
asbasbasbag57
(g73
g59
NtRp1268
(dp1269
g62
(dp1270
sg71
g1020
sg64
(lp1271
g57
(g78
g59
NtRp1272
(dp1273
g62
(dp1274
g82
g83
ssg71
g1268
sg64
(lp1275
S'http_connection'
p1276
asbag57
(g78
g59
NtRp1277
(dp1278
g62
(dp1279
g89
g90
ssg71
g1268
sg64
(lp1280
S':'
asbag57
(g78
g59
NtRp1281
(dp1282
g62
(dp1283
sg71
g1268
sg64
(lp1284
g57
(g58
g59
NtRp1285
(dp1286
g62
(dp1287
g70
I4
ssg71
g1281
sg64
(lp1288
S'keep-alive'
p1289
asbasbasbag57
(g73
g59
NtRp1290
(dp1291
g62
(dp1292
sg71
g1020
sg64
(lp1293
g57
(g78
g59
NtRp1294
(dp1295
g62
(dp1296
g82
g83
ssg71
g1290
sg64
(lp1297
S'http_cookie'
p1298
asbag57
(g78
g59
NtRp1299
(dp1300
g62
(dp1301
g89
g90
ssg71
g1290
sg64
(lp1302
S':'
asbag57
(g78
g59
NtRp1303
(dp1304
g62
(dp1305
sg71
g1290
sg64
(lp1306
g57
(g58
g59
NtRp1307
(dp1308
g62
(dp1309
g70
I4
ssg71
g1303
sg64
(lp1310
S'session_id_users=127.0.0.1-9cddfcda-07e7-4aaf-9a4d-1b675b24a7e8; session_id_welcome=127.0.0.1-6eafa04d-3319-4bb2-af21-ba80cb20ed38; session_id_admin=127.0.0.1-a5e6c132-4dea-4e16-83f4-7c87a1b988d4; session_id_just_click_=127.0.0.1-03949bd9-4000-4d26-9ac1-c5dfe5f7bdd0'
p1311
asbasbasbag57
(g73
g59
NtRp1312
(dp1313
g62
(dp1314
sg71
g1020
sg64
(lp1315
g57
(g78
g59
NtRp1316
(dp1317
g62
(dp1318
g82
g83
ssg71
g1312
sg64
(lp1319
S'http_host'
p1320
asbag57
(g78
g59
NtRp1321
(dp1322
g62
(dp1323
g89
g90
ssg71
g1312
sg64
(lp1324
S':'
asbag57
(g78
g59
NtRp1325
(dp1326
g62
(dp1327
sg71
g1312
sg64
(lp1328
g57
(g58
g59
NtRp1329
(dp1330
g62
(dp1331
g70
I4
ssg71
g1325
sg64
(lp1332
S'127.0.0.1:8000'
p1333
asbasbasbag57
(g73
g59
NtRp1334
(dp1335
g62
(dp1336
sg71
g1020
sg64
(lp1337
g57
(g78
g59
NtRp1338
(dp1339
g62
(dp1340
g82
g83
ssg71
g1334
sg64
(lp1341
S'http_referer'
p1342
asbag57
(g78
g59
NtRp1343
(dp1344
g62
(dp1345
g89
g90
ssg71
g1334
sg64
(lp1346
S':'
asbag57
(g78
g59
NtRp1347
(dp1348
g62
(dp1349
sg71
g1334
sg64
(lp1350
g57
(g58
g59
NtRp1351
(dp1352
g62
(dp1353
g70
I4
ssg71
g1347
sg64
(lp1354
S'http://127.0.0.1:8000/Just_Click_/default/showimagecomments/4'
p1355
asbasbasbag57
(g73
g59
NtRp1356
(dp1357
g62
(dp1358
sg71
g1020
sg64
(lp1359
g57
(g78
g59
NtRp1360
(dp1361
g62
(dp1362
g82
g83
ssg71
g1356
sg64
(lp1363
S'http_user_agent'
p1364
asbag57
(g78
g59
NtRp1365
(dp1366
g62
(dp1367
g89
g90
ssg71
g1356
sg64
(lp1368
S':'
asbag57
(g78
g59
NtRp1369
(dp1370
g62
(dp1371
sg71
g1356
sg64
(lp1372
g57
(g58
g59
NtRp1373
(dp1374
g62
(dp1375
g70
I4
ssg71
g1369
sg64
(lp1376
S'Mozilla/5.0 (X11; Linux i686) AppleWebKit/537.1 (KHTML, like Gecko) Chrome/21.0.1180.89 Safari/537.1'
p1377
asbasbasbag57
(g73
g59
NtRp1378
(dp1379
g62
(dp1380
sg71
g1020
sg64
(lp1381
g57
(g78
g59
NtRp1382
(dp1383
g62
(dp1384
g82
g83
ssg71
g1378
sg64
(lp1385
S'is_jython'
p1386
asbag57
(g78
g59
NtRp1387
(dp1388
g62
(dp1389
g89
g90
ssg71
g1378
sg64
(lp1390
S':'
asbag57
(g78
g59
NtRp1391
(dp1392
g62
(dp1393
sg71
g1378
sg64
(lp1394
g57
(g58
g59
NtRp1395
(dp1396
g62
(dp1397
g70
I4
ssg71
g1391
sg64
(lp1398
g100
asbasbasbag57
(g73
g59
NtRp1399
(dp1400
g62
(dp1401
sg71
g1020
sg64
(lp1402
g57
(g78
g59
NtRp1403
(dp1404
g62
(dp1405
g82
g83
ssg71
g1399
sg64
(lp1406
S'is_pypy'
p1407
asbag57
(g78
g59
NtRp1408
(dp1409
g62
(dp1410
g89
g90
ssg71
g1399
sg64
(lp1411
S':'
asbag57
(g78
g59
NtRp1412
(dp1413
g62
(dp1414
sg71
g1399
sg64
(lp1415
g57
(g58
g59
NtRp1416
(dp1417
g62
(dp1418
g70
I4
ssg71
g1412
sg64
(lp1419
g100
asbasbasbag57
(g73
g59
NtRp1420
(dp1421
g62
(dp1422
sg71
g1020
sg64
(lp1423
g57
(g78
g59
NtRp1424
(dp1425
g62
(dp1426
g82
g83
ssg71
g1420
sg64
(lp1427
S'path_info'
p1428
asbag57
(g78
g59
NtRp1429
(dp1430
g62
(dp1431
g89
g90
ssg71
g1420
sg64
(lp1432
S':'
asbag57
(g78
g59
NtRp1433
(dp1434
g62
(dp1435
sg71
g1420
sg64
(lp1436
g57
(g58
g59
NtRp1437
(dp1438
g62
(dp1439
g70
I4
ssg71
g1433
sg64
(lp1440
S'/Just_Click_/default/show/user'
p1441
asbasbasbag57
(g73
g59
NtRp1442
(dp1443
g62
(dp1444
sg71
g1020
sg64
(lp1445
g57
(g78
g59
NtRp1446
(dp1447
g62
(dp1448
g82
g83
ssg71
g1442
sg64
(lp1449
S'query_string'
p1450
asbag57
(g78
g59
NtRp1451
(dp1452
g62
(dp1453
g89
g90
ssg71
g1442
sg64
(lp1454
S':'
asbag57
(g78
g59
NtRp1455
(dp1456
g62
(dp1457
sg71
g1442
sg64
(lp1458
g57
(g58
g59
NtRp1459
(dp1460
g62
(dp1461
g70
I4
ssg71
g1455
sg64
(lp1462
S''
asbasbasbag57
(g73
g59
NtRp1463
(dp1464
g62
(dp1465
sg71
g1020
sg64
(lp1466
g57
(g78
g59
NtRp1467
(dp1468
g62
(dp1469
g82
g83
ssg71
g1463
sg64
(lp1470
S'remote_addr'
p1471
asbag57
(g78
g59
NtRp1472
(dp1473
g62
(dp1474
g89
g90
ssg71
g1463
sg64
(lp1475
S':'
asbag57
(g78
g59
NtRp1476
(dp1477
g62
(dp1478
sg71
g1463
sg64
(lp1479
g57
(g58
g59
NtRp1480
(dp1481
g62
(dp1482
g70
I4
ssg71
g1476
sg64
(lp1483
g203
asbasbasbag57
(g73
g59
NtRp1484
(dp1485
g62
(dp1486
sg71
g1020
sg64
(lp1487
g57
(g78
g59
NtRp1488
(dp1489
g62
(dp1490
g82
g83
ssg71
g1484
sg64
(lp1491
S'remote_port'
p1492
asbag57
(g78
g59
NtRp1493
(dp1494
g62
(dp1495
g89
g90
ssg71
g1484
sg64
(lp1496
S':'
asbag57
(g78
g59
NtRp1497
(dp1498
g62
(dp1499
sg71
g1484
sg64
(lp1500
g57
(g58
g59
NtRp1501
(dp1502
g62
(dp1503
g70
I4
ssg71
g1497
sg64
(lp1504
S'59882'
p1505
asbasbasbag57
(g73
g59
NtRp1506
(dp1507
g62
(dp1508
sg71
g1020
sg64
(lp1509
g57
(g78
g59
NtRp1510
(dp1511
g62
(dp1512
g82
g83
ssg71
g1506
sg64
(lp1513
S'request_method'
p1514
asbag57
(g78
g59
NtRp1515
(dp1516
g62
(dp1517
g89
g90
ssg71
g1506
sg64
(lp1518
S':'
asbag57
(g78
g59
NtRp1519
(dp1520
g62
(dp1521
sg71
g1506
sg64
(lp1522
g57
(g58
g59
NtRp1523
(dp1524
g62
(dp1525
g70
I4
ssg71
g1519
sg64
(lp1526
S'GET'
p1527
asbasbasbag57
(g73
g59
NtRp1528
(dp1529
g62
(dp1530
sg71
g1020
sg64
(lp1531
g57
(g78
g59
NtRp1532
(dp1533
g62
(dp1534
g82
g83
ssg71
g1528
sg64
(lp1535
S'script_name'
p1536
asbag57
(g78
g59
NtRp1537
(dp1538
g62
(dp1539
g89
g90
ssg71
g1528
sg64
(lp1540
S':'
asbag57
(g78
g59
NtRp1541
(dp1542
g62
(dp1543
sg71
g1528
sg64
(lp1544
g57
(g58
g59
NtRp1545
(dp1546
g62
(dp1547
g70
I4
ssg71
g1541
sg64
(lp1548
S''
asbasbasbag57
(g73
g59
NtRp1549
(dp1550
g62
(dp1551
sg71
g1020
sg64
(lp1552
g57
(g78
g59
NtRp1553
(dp1554
g62
(dp1555
g82
g83
ssg71
g1549
sg64
(lp1556
S'server_name'
p1557
asbag57
(g78
g59
NtRp1558
(dp1559
g62
(dp1560
g89
g90
ssg71
g1549
sg64
(lp1561
S':'
asbag57
(g78
g59
NtRp1562
(dp1563
g62
(dp1564
sg71
g1549
sg64
(lp1565
g57
(g58
g59
NtRp1566
(dp1567
g62
(dp1568
g70
I4
ssg71
g1562
sg64
(lp1569
S'Manikanta'
p1570
asbasbasbag57
(g73
g59
NtRp1571
(dp1572
g62
(dp1573
sg71
g1020
sg64
(lp1574
g57
(g78
g59
NtRp1575
(dp1576
g62
(dp1577
g82
g83
ssg71
g1571
sg64
(lp1578
S'server_port'
p1579
asbag57
(g78
g59
NtRp1580
(dp1581
g62
(dp1582
g89
g90
ssg71
g1571
sg64
(lp1583
S':'
asbag57
(g78
g59
NtRp1584
(dp1585
g62
(dp1586
sg71
g1571
sg64
(lp1587
g57
(g58
g59
NtRp1588
(dp1589
g62
(dp1590
g70
I4
ssg71
g1584
sg64
(lp1591
S'8000'
p1592
asbasbasbag57
(g73
g59
NtRp1593
(dp1594
g62
(dp1595
sg71
g1020
sg64
(lp1596
g57
(g78
g59
NtRp1597
(dp1598
g62
(dp1599
g82
g83
ssg71
g1593
sg64
(lp1600
S'server_protocol'
p1601
asbag57
(g78
g59
NtRp1602
(dp1603
g62
(dp1604
g89
g90
ssg71
g1593
sg64
(lp1605
S':'
asbag57
(g78
g59
NtRp1606
(dp1607
g62
(dp1608
sg71
g1593
sg64
(lp1609
g57
(g58
g59
NtRp1610
(dp1611
g62
(dp1612
g70
I4
ssg71
g1606
sg64
(lp1613
S'HTTP/1.1'
p1614
asbasbasbag57
(g73
g59
NtRp1615
(dp1616
g62
(dp1617
sg71
g1020
sg64
(lp1618
g57
(g78
g59
NtRp1619
(dp1620
g62
(dp1621
g82
g83
ssg71
g1615
sg64
(lp1622
S'server_software'
p1623
asbag57
(g78
g59
NtRp1624
(dp1625
g62
(dp1626
g89
g90
ssg71
g1615
sg64
(lp1627
S':'
asbag57
(g78
g59
NtRp1628
(dp1629
g62
(dp1630
sg71
g1615
sg64
(lp1631
g57
(g58
g59
NtRp1632
(dp1633
g62
(dp1634
g70
I4
ssg71
g1628
sg64
(lp1635
S'Rocket 1.2.4'
p1636
asbasbasbag57
(g73
g59
NtRp1637
(dp1638
g62
(dp1639
sg71
g1020
sg64
(lp1640
g57
(g78
g59
NtRp1641
(dp1642
g62
(dp1643
g82
g83
ssg71
g1637
sg64
(lp1644
S'web2py_crontype'
p1645
asbag57
(g78
g59
NtRp1646
(dp1647
g62
(dp1648
g89
g90
ssg71
g1637
sg64
(lp1649
S':'
asbag57
(g78
g59
NtRp1650
(dp1651
g62
(dp1652
sg71
g1637
sg64
(lp1653
g57
(g58
g59
NtRp1654
(dp1655
g62
(dp1656
g70
I4
ssg71
g1650
sg64
(lp1657
S'hard'
p1658
asbasbasbag57
(g73
g59
NtRp1659
(dp1660
g62
(dp1661
sg71
g1020
sg64
(lp1662
g57
(g78
g59
NtRp1663
(dp1664
g62
(dp1665
g82
g83
ssg71
g1659
sg64
(lp1666
S'web2py_path'
p1667
asbag57
(g78
g59
NtRp1668
(dp1669
g62
(dp1670
g89
g90
ssg71
g1659
sg64
(lp1671
S':'
asbag57
(g78
g59
NtRp1672
(dp1673
g62
(dp1674
sg71
g1659
sg64
(lp1675
g57
(g58
g59
NtRp1676
(dp1677
g62
(dp1678
g70
I4
ssg71
g1672
sg64
(lp1679
g1067
asbasbasbag57
(g73
g59
NtRp1680
(dp1681
g62
(dp1682
sg71
g1020
sg64
(lp1683
g57
(g78
g59
NtRp1684
(dp1685
g62
(dp1686
g82
g83
ssg71
g1680
sg64
(lp1687
S'web2py_version'
p1688
asbag57
(g78
g59
NtRp1689
(dp1690
g62
(dp1691
g89
g90
ssg71
g1680
sg64
(lp1692
S':'
asbag57
(g78
g59
NtRp1693
(dp1694
g62
(dp1695
sg71
g1680
sg64
(lp1696
g57
(g58
g59
NtRp1697
(dp1698
g62
(dp1699
g70
I4
ssg71
g1693
sg64
(lp1700
g57
(g66
g59
NtRp1701
(dp1702
g62
(dp1703
g70
I3
ssg71
Nsg64
(lp1704
g57
(g73
g59
NtRp1705
(dp1706
g62
(dp1707
sg71
g1701
sg64
(lp1708
g57
(g78
g59
NtRp1709
(dp1710
g62
(dp1711
sg71
g1705
sg64
(lp1712
g57
(g58
g59
NtRp1713
(dp1714
g62
(dp1715
g70
I3
ssg71
g1709
sg64
(lp1716
S'1'
asbasbasbag57
(g73
g59
NtRp1717
(dp1718
g62
(dp1719
sg71
g1701
sg64
(lp1720
g57
(g78
g59
NtRp1721
(dp1722
g62
(dp1723
sg71
g1717
sg64
(lp1724
g57
(g58
g59
NtRp1725
(dp1726
g62
(dp1727
g70
I3
ssg71
g1721
sg64
(lp1728
S'99'
p1729
asbasbasbag57
(g73
g59
NtRp1730
(dp1731
g62
(dp1732
sg71
g1701
sg64
(lp1733
g57
(g78
g59
NtRp1734
(dp1735
g62
(dp1736
sg71
g1730
sg64
(lp1737
g57
(g58
g59
NtRp1738
(dp1739
g62
(dp1740
g70
I3
ssg71
g1734
sg64
(lp1741
S'7'
asbasbasbag57
(g73
g59
NtRp1742
(dp1743
g62
(dp1744
sg71
g1701
sg64
(lp1745
g57
(g78
g59
NtRp1746
(dp1747
g62
(dp1748
sg71
g1742
sg64
(lp1749
g57
(g58
g59
NtRp1750
(dp1751
g62
(dp1752
g70
I3
ssg71
g1746
sg64
(lp1753
S'datetime.datetime(2012, 3, 4, 22, 12, 8)'
p1754
asbasbasbag57
(g73
g59
NtRp1755
(dp1756
g62
(dp1757
sg71
g1701
sg64
(lp1758
g57
(g78
g59
NtRp1759
(dp1760
g62
(dp1761
sg71
g1755
sg64
(lp1762
g57
(g58
g59
NtRp1763
(dp1764
g62
(dp1765
g70
I3
ssg71
g1759
sg64
(lp1766
S'stable'
p1767
asbasbasbasbasbasbasbag57
(g73
g59
NtRp1768
(dp1769
g62
(dp1770
sg71
g1020
sg64
(lp1771
g57
(g78
g59
NtRp1772
(dp1773
g62
(dp1774
g82
g83
ssg71
g1768
sg64
(lp1775
S'wsgi_errors'
p1776
asbag57
(g78
g59
NtRp1777
(dp1778
g62
(dp1779
g89
g90
ssg71
g1768
sg64
(lp1780
S':'
asbag57
(g78
g59
NtRp1781
(dp1782
g62
(dp1783
sg71
g1768
sg64
(lp1784
g57
(g58
g59
NtRp1785
(dp1786
g62
(dp1787
g70
I4
ssg71
g1781
sg64
(lp1788
S"<open file '<stderr>', mode 'w' at 0xb728a0d0>"
p1789
asbasbasbag57
(g73
g59
NtRp1790
(dp1791
g62
(dp1792
sg71
g1020
sg64
(lp1793
g57
(g78
g59
NtRp1794
(dp1795
g62
(dp1796
g82
g83
ssg71
g1790
sg64
(lp1797
S'wsgi_file_wrapper'
p1798
asbag57
(g78
g59
NtRp1799
(dp1800
g62
(dp1801
g89
g90
ssg71
g1790
sg64
(lp1802
S':'
asbag57
(g78
g59
NtRp1803
(dp1804
g62
(dp1805
sg71
g1790
sg64
(lp1806
g57
(g58
g59
NtRp1807
(dp1808
g62
(dp1809
g70
I4
ssg71
g1803
sg64
(lp1810
S'<class wsgiref.util.FileWrapper at 0x918ce9c>'
p1811
asbasbasbag57
(g73
g59
NtRp1812
(dp1813
g62
(dp1814
sg71
g1020
sg64
(lp1815
g57
(g78
g59
NtRp1816
(dp1817
g62
(dp1818
g82
g83
ssg71
g1812
sg64
(lp1819
S'wsgi_input'
p1820
asbag57
(g78
g59
NtRp1821
(dp1822
g62
(dp1823
g89
g90
ssg71
g1812
sg64
(lp1824
S':'
asbag57
(g78
g59
NtRp1825
(dp1826
g62
(dp1827
sg71
g1812
sg64
(lp1828
g57
(g58
g59
NtRp1829
(dp1830
g62
(dp1831
g70
I4
ssg71
g1825
sg64
(lp1832
S'<socket._fileobject object at 0xaf06afac>'
p1833
asbasbasbag57
(g73
g59
NtRp1834
(dp1835
g62
(dp1836
sg71
g1020
sg64
(lp1837
g57
(g78
g59
NtRp1838
(dp1839
g62
(dp1840
g82
g83
ssg71
g1834
sg64
(lp1841
S'wsgi_multiprocess'
p1842
asbag57
(g78
g59
NtRp1843
(dp1844
g62
(dp1845
g89
g90
ssg71
g1834
sg64
(lp1846
S':'
asbag57
(g78
g59
NtRp1847
(dp1848
g62
(dp1849
sg71
g1834
sg64
(lp1850
g57
(g58
g59
NtRp1851
(dp1852
g62
(dp1853
g70
I4
ssg71
g1847
sg64
(lp1854
g100
asbasbasbag57
(g73
g59
NtRp1855
(dp1856
g62
(dp1857
sg71
g1020
sg64
(lp1858
g57
(g78
g59
NtRp1859
(dp1860
g62
(dp1861
g82
g83
ssg71
g1855
sg64
(lp1862
S'wsgi_multithread'
p1863
asbag57
(g78
g59
NtRp1864
(dp1865
g62
(dp1866
g89
g90
ssg71
g1855
sg64
(lp1867
S':'
asbag57
(g78
g59
NtRp1868
(dp1869
g62
(dp1870
sg71
g1855
sg64
(lp1871
g57
(g58
g59
NtRp1872
(dp1873
g62
(dp1874
g70
I4
ssg71
g1868
sg64
(lp1875
S'True'
p1876
asbasbasbag57
(g73
g59
NtRp1877
(dp1878
g62
(dp1879
sg71
g1020
sg64
(lp1880
g57
(g78
g59
NtRp1881
(dp1882
g62
(dp1883
g82
g83
ssg71
g1877
sg64
(lp1884
S'wsgi_run_once'
p1885
asbag57
(g78
g59
NtRp1886
(dp1887
g62
(dp1888
g89
g90
ssg71
g1877
sg64
(lp1889
S':'
asbag57
(g78
g59
NtRp1890
(dp1891
g62
(dp1892
sg71
g1877
sg64
(lp1893
g57
(g58
g59
NtRp1894
(dp1895
g62
(dp1896
g70
I4
ssg71
g1890
sg64
(lp1897
g100
asbasbasbag57
(g73
g59
NtRp1898
(dp1899
g62
(dp1900
sg71
g1020
sg64
(lp1901
g57
(g78
g59
NtRp1902
(dp1903
g62
(dp1904
g82
g83
ssg71
g1898
sg64
(lp1905
S'wsgi_url_scheme'
p1906
asbag57
(g78
g59
NtRp1907
(dp1908
g62
(dp1909
g89
g90
ssg71
g1898
sg64
(lp1910
S':'
asbag57
(g78
g59
NtRp1911
(dp1912
g62
(dp1913
sg71
g1898
sg64
(lp1914
g57
(g58
g59
NtRp1915
(dp1916
g62
(dp1917
g70
I4
ssg71
g1911
sg64
(lp1918
S'http'
p1919
asbasbasbag57
(g73
g59
NtRp1920
(dp1921
g62
(dp1922
sg71
g1020
sg64
(lp1923
g57
(g78
g59
NtRp1924
(dp1925
g62
(dp1926
g82
g83
ssg71
g1920
sg64
(lp1927
S'wsgi_version'
p1928
asbag57
(g78
g59
NtRp1929
(dp1930
g62
(dp1931
g89
g90
ssg71
g1920
sg64
(lp1932
S':'
asbag57
(g78
g59
NtRp1933
(dp1934
g62
(dp1935
sg71
g1920
sg64
(lp1936
g57
(g58
g59
NtRp1937
(dp1938
g62
(dp1939
g70
I4
ssg71
g1933
sg64
(lp1940
g57
(g66
g59
NtRp1941
(dp1942
g62
(dp1943
g70
I3
ssg71
Nsg64
(lp1944
g57
(g73
g59
NtRp1945
(dp1946
g62
(dp1947
sg71
g1941
sg64
(lp1948
g57
(g78
g59
NtRp1949
(dp1950
g62
(dp1951
sg71
g1945
sg64
(lp1952
g57
(g58
g59
NtRp1953
(dp1954
g62
(dp1955
g70
I3
ssg71
g1949
sg64
(lp1956
S'1'
asbasbasbag57
(g73
g59
NtRp1957
(dp1958
g62
(dp1959
sg71
g1941
sg64
(lp1960
g57
(g78
g59
NtRp1961
(dp1962
g62
(dp1963
sg71
g1957
sg64
(lp1964
g57
(g58
g59
NtRp1965
(dp1966
g62
(dp1967
g70
I3
ssg71
g1961
sg64
(lp1968
S'0'
asbasbasbasbasbasbasbasbasbasbasbag57
(g73
g59
NtRp1969
(dp1970
g62
(dp1971
sg71
g67
sg64
(lp1972
g57
(g78
g59
NtRp1973
(dp1974
g62
(dp1975
g82
g83
ssg71
g1969
sg64
(lp1976
S'extension'
p1977
asbag57
(g78
g59
NtRp1978
(dp1979
g62
(dp1980
g89
g90
ssg71
g1969
sg64
(lp1981
S':'
asbag57
(g78
g59
NtRp1982
(dp1983
g62
(dp1984
sg71
g1969
sg64
(lp1985
g57
(g58
g59
NtRp1986
(dp1987
g62
(dp1988
g70
I5
ssg71
g1982
sg64
(lp1989
S'html'
p1990
asbasbasbag57
(g73
g59
NtRp1991
(dp1992
g62
(dp1993
sg71
g67
sg64
(lp1994
g57
(g78
g59
NtRp1995
(dp1996
g62
(dp1997
g82
g83
ssg71
g1991
sg64
(lp1998
S'folder'
p1999
asbag57
(g78
g59
NtRp2000
(dp2001
g62
(dp2002
g89
g90
ssg71
g1991
sg64
(lp2003
S':'
asbag57
(g78
g59
NtRp2004
(dp2005
g62
(dp2006
sg71
g1991
sg64
(lp2007
g57
(g58
g59
NtRp2008
(dp2009
g62
(dp2010
g70
I5
ssg71
g2004
sg64
(lp2011
S'/home/manikanta/Study/web2py/applications/Just_Click_/'
p2012
asbasbasbag57
(g73
g59
NtRp2013
(dp2014
g62
(dp2015
sg71
g67
sg64
(lp2016
g57
(g78
g59
NtRp2017
(dp2018
g62
(dp2019
g82
g83
ssg71
g2013
sg64
(lp2020
S'function'
p2021
asbag57
(g78
g59
NtRp2022
(dp2023
g62
(dp2024
g89
g90
ssg71
g2013
sg64
(lp2025
S':'
asbag57
(g78
g59
NtRp2026
(dp2027
g62
(dp2028
sg71
g2013
sg64
(lp2029
g57
(g58
g59
NtRp2030
(dp2031
g62
(dp2032
g70
I5
ssg71
g2026
sg64
(lp2033
S'show'
p2034
asbasbasbag57
(g73
g59
NtRp2035
(dp2036
g62
(dp2037
sg71
g67
sg64
(lp2038
g57
(g78
g59
NtRp2039
(dp2040
g62
(dp2041
g82
g83
ssg71
g2035
sg64
(lp2042
S'get_vars'
p2043
asbag57
(g78
g59
NtRp2044
(dp2045
g62
(dp2046
g89
g90
ssg71
g2035
sg64
(lp2047
S':'
asbag57
(g78
g59
NtRp2048
(dp2049
g62
(dp2050
sg71
g2035
sg64
(lp2051
g57
(g58
g59
NtRp2052
(dp2053
g62
(dp2054
g70
I5
ssg71
g2048
sg64
(lp2055
g57
(g66
g59
NtRp2056
(dp2057
g62
(dp2058
g70
I4
ssg71
Nsg64
(lp2059
sbasbasbasbag57
(g73
g59
NtRp2060
(dp2061
g62
(dp2062
sg71
g67
sg64
(lp2063
g57
(g78
g59
NtRp2064
(dp2065
g62
(dp2066
g82
g83
ssg71
g2060
sg64
(lp2067
S'global_settings'
p2068
asbag57
(g78
g59
NtRp2069
(dp2070
g62
(dp2071
g89
g90
ssg71
g2060
sg64
(lp2072
S':'
asbag57
(g78
g59
NtRp2073
(dp2074
g62
(dp2075
sg71
g2060
sg64
(lp2076
g57
(g58
g59
NtRp2077
(dp2078
g62
(dp2079
g70
I5
ssg71
g2073
sg64
(lp2080
g57
(g66
g59
NtRp2081
(dp2082
g62
(dp2083
g70
I4
ssg71
Nsg64
(lp2084
g57
(g73
g59
NtRp2085
(dp2086
g62
(dp2087
sg71
g2081
sg64
(lp2088
g57
(g78
g59
NtRp2089
(dp2090
g62
(dp2091
g82
g83
ssg71
g2085
sg64
(lp2092
g1032
asbag57
(g78
g59
NtRp2093
(dp2094
g62
(dp2095
g89
g90
ssg71
g2085
sg64
(lp2096
S':'
asbag57
(g78
g59
NtRp2097
(dp2098
g62
(dp2099
sg71
g2085
sg64
(lp2100
g57
(g58
g59
NtRp2101
(dp2102
g62
(dp2103
g70
I4
ssg71
g2097
sg64
(lp2104
S"set(['/home/manikanta/Study/web2py/applications/Just_Click_/', '/home/manikanta/Study/web2py/applications/admin/', '/home/manikanta/Study/web2py/applications/welcome/'])"
p2105
asbasbasbag57
(g73
g59
NtRp2106
(dp2107
g62
(dp2108
sg71
g2081
sg64
(lp2109
g57
(g78
g59
NtRp2110
(dp2111
g62
(dp2112
g82
g83
ssg71
g2106
sg64
(lp2113
g1054
asbag57
(g78
g59
NtRp2114
(dp2115
g62
(dp2116
g89
g90
ssg71
g2106
sg64
(lp2117
S':'
asbag57
(g78
g59
NtRp2118
(dp2119
g62
(dp2120
sg71
g2106
sg64
(lp2121
g57
(g58
g59
NtRp2122
(dp2123
g62
(dp2124
g70
I4
ssg71
g2118
sg64
(lp2125
g1067
asbasbasbag57
(g73
g59
NtRp2126
(dp2127
g62
(dp2128
sg71
g2081
sg64
(lp2129
g57
(g78
g59
NtRp2130
(dp2131
g62
(dp2132
g82
g83
ssg71
g2126
sg64
(lp2133
g1076
asbag57
(g78
g59
NtRp2134
(dp2135
g62
(dp2136
g89
g90
ssg71
g2126
sg64
(lp2137
S':'
asbag57
(g78
g59
NtRp2138
(dp2139
g62
(dp2140
sg71
g2126
sg64
(lp2141
g57
(g58
g59
NtRp2142
(dp2143
g62
(dp2144
g70
I4
ssg71
g2138
sg64
(lp2145
g57
(g66
g59
NtRp2146
(dp2147
g62
(dp2148
g70
I3
ssg71
Nsg64
(lp2149
sbasbasbasbag57
(g73
g59
NtRp2150
(dp2151
g62
(dp2152
sg71
g2081
sg64
(lp2153
g57
(g78
g59
NtRp2154
(dp2155
g62
(dp2156
g82
g83
ssg71
g2150
sg64
(lp2157
g1101
asbag57
(g78
g59
NtRp2158
(dp2159
g62
(dp2160
g89
g90
ssg71
g2150
sg64
(lp2161
S':'
asbag57
(g78
g59
NtRp2162
(dp2163
g62
(dp2164
sg71
g2150
sg64
(lp2165
g57
(g58
g59
NtRp2166
(dp2167
g62
(dp2168
g70
I4
ssg71
g2162
sg64
(lp2169
S"<Values at 0x91bb7cc: {'verbose': False, 'ip': '127.0.0.1', 'shutdown_timeout': 5, 'taskbar': False, 'nocron': False, 'pid_filename': 'httpserver.pid', 'maxthreads': None, 'softcron': False, 'server_name': 'Manikanta', 'bpython': False, 'nogui': False, 'port': 8000, 'extcron': False, 'debuglevel': 30, 'test': None, 'folder': '/home/manikanta/Study/web2py', 'config': '', 'import_models': False, 'winservice': '', 'shell': None, 'run': '', 'log_filename': 'httpserver.log', 'args': [''], 'socket_timeout': 5, 'ssl_ca_certificate': None, 'scheduler': None, 'profiler_filename': None, 'ssl_private_key': '', 'password': '12345', 'request_queue_size': 5, 'ssl_certificate': '', 'cronjob': False, 'numthreads': None, 'quiet': False, 'interfaces': None, 'minthreads': None, 'timeout': 10, 'plain': False, 'nobanner': False}>"
p2170
asbasbasbag57
(g73
g59
NtRp2171
(dp2172
g62
(dp2173
sg71
g2081
sg64
(lp2174
g57
(g78
g59
NtRp2175
(dp2176
g62
(dp2177
g82
g83
ssg71
g2171
sg64
(lp2178
g1123
asbag57
(g78
g59
NtRp2179
(dp2180
g62
(dp2181
g89
g90
ssg71
g2171
sg64
(lp2182
S':'
asbag57
(g78
g59
NtRp2183
(dp2184
g62
(dp2185
sg71
g2171
sg64
(lp2186
g57
(g58
g59
NtRp2187
(dp2188
g62
(dp2189
g70
I4
ssg71
g2183
sg64
(lp2190
S'set([])'
p2191
asbasbasbag57
(g73
g59
NtRp2192
(dp2193
g62
(dp2194
sg71
g2081
sg64
(lp2195
g57
(g78
g59
NtRp2196
(dp2197
g62
(dp2198
g82
g83
ssg71
g2192
sg64
(lp2199
g1145
asbag57
(g78
g59
NtRp2200
(dp2201
g62
(dp2202
g89
g90
ssg71
g2192
sg64
(lp2203
S':'
asbag57
(g78
g59
NtRp2204
(dp2205
g62
(dp2206
sg71
g2192
sg64
(lp2207
g57
(g58
g59
NtRp2208
(dp2209
g62
(dp2210
g70
I4
ssg71
g2204
sg64
(lp2211
g100
asbasbasbag57
(g73
g59
NtRp2212
(dp2213
g62
(dp2214
sg71
g2081
sg64
(lp2215
g57
(g78
g59
NtRp2216
(dp2217
g62
(dp2218
g82
g83
ssg71
g2212
sg64
(lp2219
g1166
asbag57
(g78
g59
NtRp2220
(dp2221
g62
(dp2222
g89
g90
ssg71
g2212
sg64
(lp2223
S':'
asbag57
(g78
g59
NtRp2224
(dp2225
g62
(dp2226
sg71
g2212
sg64
(lp2227
g57
(g58
g59
NtRp2228
(dp2229
g62
(dp2230
g70
I4
ssg71
g2224
sg64
(lp2231
g1179
asbasbasbag57
(g73
g59
NtRp2232
(dp2233
g62
(dp2234
sg71
g2081
sg64
(lp2235
g57
(g78
g59
NtRp2236
(dp2237
g62
(dp2238
g82
g83
ssg71
g2232
sg64
(lp2239
g1386
asbag57
(g78
g59
NtRp2240
(dp2241
g62
(dp2242
g89
g90
ssg71
g2232
sg64
(lp2243
S':'
asbag57
(g78
g59
NtRp2244
(dp2245
g62
(dp2246
sg71
g2232
sg64
(lp2247
g57
(g58
g59
NtRp2248
(dp2249
g62
(dp2250
g70
I4
ssg71
g2244
sg64
(lp2251
g100
asbasbasbag57
(g73
g59
NtRp2252
(dp2253
g62
(dp2254
sg71
g2081
sg64
(lp2255
g57
(g78
g59
NtRp2256
(dp2257
g62
(dp2258
g82
g83
ssg71
g2252
sg64
(lp2259
g1407
asbag57
(g78
g59
NtRp2260
(dp2261
g62
(dp2262
g89
g90
ssg71
g2252
sg64
(lp2263
S':'
asbag57
(g78
g59
NtRp2264
(dp2265
g62
(dp2266
sg71
g2252
sg64
(lp2267
g57
(g58
g59
NtRp2268
(dp2269
g62
(dp2270
g70
I4
ssg71
g2264
sg64
(lp2271
g100
asbasbasbag57
(g73
g59
NtRp2272
(dp2273
g62
(dp2274
sg71
g2081
sg64
(lp2275
g57
(g78
g59
NtRp2276
(dp2277
g62
(dp2278
g82
g83
ssg71
g2272
sg64
(lp2279
g1645
asbag57
(g78
g59
NtRp2280
(dp2281
g62
(dp2282
g89
g90
ssg71
g2272
sg64
(lp2283
S':'
asbag57
(g78
g59
NtRp2284
(dp2285
g62
(dp2286
sg71
g2272
sg64
(lp2287
g57
(g58
g59
NtRp2288
(dp2289
g62
(dp2290
g70
I4
ssg71
g2284
sg64
(lp2291
g1658
asbasbasbag57
(g73
g59
NtRp2292
(dp2293
g62
(dp2294
sg71
g2081
sg64
(lp2295
g57
(g78
g59
NtRp2296
(dp2297
g62
(dp2298
g82
g83
ssg71
g2292
sg64
(lp2299
g1688
asbag57
(g78
g59
NtRp2300
(dp2301
g62
(dp2302
g89
g90
ssg71
g2292
sg64
(lp2303
S':'
asbag57
(g78
g59
NtRp2304
(dp2305
g62
(dp2306
sg71
g2292
sg64
(lp2307
g57
(g58
g59
NtRp2308
(dp2309
g62
(dp2310
g70
I4
ssg71
g2304
sg64
(lp2311
g57
(g66
g59
NtRp2312
(dp2313
g62
(dp2314
g70
I3
ssg71
Nsg64
(lp2315
g57
(g73
g59
NtRp2316
(dp2317
g62
(dp2318
sg71
g2312
sg64
(lp2319
g57
(g78
g59
NtRp2320
(dp2321
g62
(dp2322
sg71
g2316
sg64
(lp2323
g57
(g58
g59
NtRp2324
(dp2325
g62
(dp2326
g70
I3
ssg71
g2320
sg64
(lp2327
S'1'
asbasbasbag57
(g73
g59
NtRp2328
(dp2329
g62
(dp2330
sg71
g2312
sg64
(lp2331
g57
(g78
g59
NtRp2332
(dp2333
g62
(dp2334
sg71
g2328
sg64
(lp2335
g57
(g58
g59
NtRp2336
(dp2337
g62
(dp2338
g70
I3
ssg71
g2332
sg64
(lp2339
S'99'
p2340
asbasbasbag57
(g73
g59
NtRp2341
(dp2342
g62
(dp2343
sg71
g2312
sg64
(lp2344
g57
(g78
g59
NtRp2345
(dp2346
g62
(dp2347
sg71
g2341
sg64
(lp2348
g57
(g58
g59
NtRp2349
(dp2350
g62
(dp2351
g70
I3
ssg71
g2345
sg64
(lp2352
S'7'
asbasbasbag57
(g73
g59
NtRp2353
(dp2354
g62
(dp2355
sg71
g2312
sg64
(lp2356
g57
(g78
g59
NtRp2357
(dp2358
g62
(dp2359
sg71
g2353
sg64
(lp2360
g57
(g58
g59
NtRp2361
(dp2362
g62
(dp2363
g70
I3
ssg71
g2357
sg64
(lp2364
S'datetime.datetime(2012, 3, 4, 22, 12, 8)'
p2365
asbasbasbag57
(g73
g59
NtRp2366
(dp2367
g62
(dp2368
sg71
g2312
sg64
(lp2369
g57
(g78
g59
NtRp2370
(dp2371
g62
(dp2372
sg71
g2366
sg64
(lp2373
g57
(g58
g59
NtRp2374
(dp2375
g62
(dp2376
g70
I3
ssg71
g2370
sg64
(lp2377
g1767
asbasbasbasbasbasbasbasbasbasbasbag57
(g73
g59
NtRp2378
(dp2379
g62
(dp2380
sg71
g67
sg64
(lp2381
g57
(g78
g59
NtRp2382
(dp2383
g62
(dp2384
g82
g83
ssg71
g2378
sg64
(lp2385
S'is_https'
p2386
asbag57
(g78
g59
NtRp2387
(dp2388
g62
(dp2389
g89
g90
ssg71
g2378
sg64
(lp2390
S':'
asbag57
(g78
g59
NtRp2391
(dp2392
g62
(dp2393
sg71
g2378
sg64
(lp2394
g57
(g58
g59
NtRp2395
(dp2396
g62
(dp2397
g70
I5
ssg71
g2391
sg64
(lp2398
g100
asbasbasbag57
(g73
g59
NtRp2399
(dp2400
g62
(dp2401
sg71
g67
sg64
(lp2402
g57
(g78
g59
NtRp2403
(dp2404
g62
(dp2405
g82
g83
ssg71
g2399
sg64
(lp2406
S'is_local'
p2407
asbag57
(g78
g59
NtRp2408
(dp2409
g62
(dp2410
g89
g90
ssg71
g2399
sg64
(lp2411
S':'
asbag57
(g78
g59
NtRp2412
(dp2413
g62
(dp2414
sg71
g2399
sg64
(lp2415
g57
(g58
g59
NtRp2416
(dp2417
g62
(dp2418
g70
I5
ssg71
g2412
sg64
(lp2419
g1876
asbasbasbag57
(g73
g59
NtRp2420
(dp2421
g62
(dp2422
sg71
g67
sg64
(lp2423
g57
(g78
g59
NtRp2424
(dp2425
g62
(dp2426
g82
g83
ssg71
g2420
sg64
(lp2427
S'is_restful'
p2428
asbag57
(g78
g59
NtRp2429
(dp2430
g62
(dp2431
g89
g90
ssg71
g2420
sg64
(lp2432
S':'
asbag57
(g78
g59
NtRp2433
(dp2434
g62
(dp2435
sg71
g2420
sg64
(lp2436
g57
(g58
g59
NtRp2437
(dp2438
g62
(dp2439
g70
I5
ssg71
g2433
sg64
(lp2440
g100
asbasbasbag57
(g73
g59
NtRp2441
(dp2442
g62
(dp2443
sg71
g67
sg64
(lp2444
g57
(g78
g59
NtRp2445
(dp2446
g62
(dp2447
g82
g83
ssg71
g2441
sg64
(lp2448
S'now'
p2449
asbag57
(g78
g59
NtRp2450
(dp2451
g62
(dp2452
g89
g90
ssg71
g2441
sg64
(lp2453
S':'
asbag57
(g78
g59
NtRp2454
(dp2455
g62
(dp2456
sg71
g2441
sg64
(lp2457
g57
(g58
g59
NtRp2458
(dp2459
g62
(dp2460
g70
I5
ssg71
g2454
sg64
(lp2461
S'datetime.datetime(2012, 9, 11, 17, 50, 16, 31172)'
p2462
asbasbasbag57
(g73
g59
NtRp2463
(dp2464
g62
(dp2465
sg71
g67
sg64
(lp2466
g57
(g78
g59
NtRp2467
(dp2468
g62
(dp2469
g82
g83
ssg71
g2463
sg64
(lp2470
S'post_vars'
p2471
asbag57
(g78
g59
NtRp2472
(dp2473
g62
(dp2474
g89
g90
ssg71
g2463
sg64
(lp2475
S':'
asbag57
(g78
g59
NtRp2476
(dp2477
g62
(dp2478
sg71
g2463
sg64
(lp2479
g57
(g58
g59
NtRp2480
(dp2481
g62
(dp2482
g70
I5
ssg71
g2476
sg64
(lp2483
g57
(g66
g59
NtRp2484
(dp2485
g62
(dp2486
g70
I4
ssg71
Nsg64
(lp2487
sbasbasbasbag57
(g73
g59
NtRp2488
(dp2489
g62
(dp2490
sg71
g67
sg64
(lp2491
g57
(g78
g59
NtRp2492
(dp2493
g62
(dp2494
g82
g83
ssg71
g2488
sg64
(lp2495
S'raw_args'
p2496
asbag57
(g78
g59
NtRp2497
(dp2498
g62
(dp2499
g89
g90
ssg71
g2488
sg64
(lp2500
S':'
asbag57
(g78
g59
NtRp2501
(dp2502
g62
(dp2503
sg71
g2488
sg64
(lp2504
g57
(g58
g59
NtRp2505
(dp2506
g62
(dp2507
g70
I5
ssg71
g2501
sg64
(lp2508
g159
asbasbasbag57
(g73
g59
NtRp2509
(dp2510
g62
(dp2511
sg71
g67
sg64
(lp2512
g57
(g78
g59
NtRp2513
(dp2514
g62
(dp2515
g82
g83
ssg71
g2509
sg64
(lp2516
S'url'
p2517
asbag57
(g78
g59
NtRp2518
(dp2519
g62
(dp2520
g89
g90
ssg71
g2509
sg64
(lp2521
S':'
asbag57
(g78
g59
NtRp2522
(dp2523
g62
(dp2524
sg71
g2509
sg64
(lp2525
g57
(g58
g59
NtRp2526
(dp2527
g62
(dp2528
g70
I5
ssg71
g2522
sg64
(lp2529
S'/Just_Click_/default/show/user'
p2530
asbasbasbag57
(g73
g59
NtRp2531
(dp2532
g62
(dp2533
sg71
g67
sg64
(lp2534
g57
(g78
g59
NtRp2535
(dp2536
g62
(dp2537
g82
g83
ssg71
g2531
sg64
(lp2538
S'utcnow'
p2539
asbag57
(g78
g59
NtRp2540
(dp2541
g62
(dp2542
g89
g90
ssg71
g2531
sg64
(lp2543
S':'
asbag57
(g78
g59
NtRp2544
(dp2545
g62
(dp2546
sg71
g2531
sg64
(lp2547
g57
(g58
g59
NtRp2548
(dp2549
g62
(dp2550
g70
I5
ssg71
g2544
sg64
(lp2551
S'datetime.datetime(2012, 9, 11, 12, 20, 16, 31229)'
p2552
asbasbasbag57
(g73
g59
NtRp2553
(dp2554
g62
(dp2555
sg71
g67
sg64
(lp2556
g57
(g78
g59
NtRp2557
(dp2558
g62
(dp2559
g82
g83
ssg71
g2553
sg64
(lp2560
S'uuid'
p2561
asbag57
(g78
g59
NtRp2562
(dp2563
g62
(dp2564
g89
g90
ssg71
g2553
sg64
(lp2565
S':'
asbag57
(g78
g59
NtRp2566
(dp2567
g62
(dp2568
sg71
g2553
sg64
(lp2569
g57
(g58
g59
NtRp2570
(dp2571
g62
(dp2572
g70
I5
ssg71
g2566
sg64
(lp2573
S'Just_Click_/127.0.0.1.2012-09-11.17-50-16.09a47d8c-9217-41fc-b134-8dedf694005b'
p2574
asbasbasbag57
(g73
g59
NtRp2575
(dp2576
g62
(dp2577
sg71
g67
sg64
(lp2578
g57
(g78
g59
NtRp2579
(dp2580
g62
(dp2581
g82
g83
ssg71
g2575
sg64
(lp2582
S'vars'
p2583
asbag57
(g78
g59
NtRp2584
(dp2585
g62
(dp2586
g89
g90
ssg71
g2575
sg64
(lp2587
S':'
asbag57
(g78
g59
NtRp2588
(dp2589
g62
(dp2590
sg71
g2575
sg64
(lp2591
g57
(g58
g59
NtRp2592
(dp2593
g62
(dp2594
g70
I5
ssg71
g2588
sg64
(lp2595
g57
(g66
g59
NtRp2596
(dp2597
g62
(dp2598
g70
I4
ssg71
Nsg64
(lp2599
sbasbasbasbag57
(g73
g59
NtRp2600
(dp2601
g62
(dp2602
sg71
g67
sg64
(lp2603
g57
(g78
g59
NtRp2604
(dp2605
g62
(dp2606
g82
g83
ssg71
g2600
sg64
(lp2607
S'wsgi'
p2608
asbag57
(g78
g59
NtRp2609
(dp2610
g62
(dp2611
g89
g90
ssg71
g2600
sg64
(lp2612
S':'
asbag57
(g78
g59
NtRp2613
(dp2614
g62
(dp2615
sg71
g2600
sg64
(lp2616
g57
(g58
g59
NtRp2617
(dp2618
g62
(dp2619
g70
I5
ssg71
g2613
sg64
(lp2620
g57
(g66
g59
NtRp2621
(dp2622
g62
(dp2623
g70
I4
ssg71
Nsg64
(lp2624
g57
(g73
g59
NtRp2625
(dp2626
g62
(dp2627
sg71
g2621
sg64
(lp2628
g57
(g78
g59
NtRp2629
(dp2630
g62
(dp2631
g82
g83
ssg71
g2625
sg64
(lp2632
S'environ'
p2633
asbag57
(g78
g59
NtRp2634
(dp2635
g62
(dp2636
g89
g90
ssg71
g2625
sg64
(lp2637
S':'
asbag57
(g78
g59
NtRp2638
(dp2639
g62
(dp2640
sg71
g2625
sg64
(lp2641
g57
(g58
g59
NtRp2642
(dp2643
g62
(dp2644
g70
I4
ssg71
g2638
sg64
(lp2645
g57
(g66
g59
NtRp2646
(dp2647
g62
(dp2648
g70
I3
ssg71
Nsg64
(lp2649
g57
(g73
g59
NtRp2650
(dp2651
g62
(dp2652
sg71
g2646
sg64
(lp2653
g57
(g78
g59
NtRp2654
(dp2655
g62
(dp2656
g82
g83
ssg71
g2650
sg64
(lp2657
S'HTTP_ACCEPT'
p2658
asbag57
(g78
g59
NtRp2659
(dp2660
g62
(dp2661
g89
g90
ssg71
g2650
sg64
(lp2662
S':'
asbag57
(g78
g59
NtRp2663
(dp2664
g62
(dp2665
sg71
g2650
sg64
(lp2666
g57
(g58
g59
NtRp2667
(dp2668
g62
(dp2669
g70
I3
ssg71
g2663
sg64
(lp2670
g1201
asbasbasbag57
(g73
g59
NtRp2671
(dp2672
g62
(dp2673
sg71
g2646
sg64
(lp2674
g57
(g78
g59
NtRp2675
(dp2676
g62
(dp2677
g82
g83
ssg71
g2671
sg64
(lp2678
S'HTTP_ACCEPT_CHARSET'
p2679
asbag57
(g78
g59
NtRp2680
(dp2681
g62
(dp2682
g89
g90
ssg71
g2671
sg64
(lp2683
S':'
asbag57
(g78
g59
NtRp2684
(dp2685
g62
(dp2686
sg71
g2671
sg64
(lp2687
g57
(g58
g59
NtRp2688
(dp2689
g62
(dp2690
g70
I3
ssg71
g2684
sg64
(lp2691
g1223
asbasbasbag57
(g73
g59
NtRp2692
(dp2693
g62
(dp2694
sg71
g2646
sg64
(lp2695
g57
(g78
g59
NtRp2696
(dp2697
g62
(dp2698
g82
g83
ssg71
g2692
sg64
(lp2699
S'HTTP_ACCEPT_ENCODING'
p2700
asbag57
(g78
g59
NtRp2701
(dp2702
g62
(dp2703
g89
g90
ssg71
g2692
sg64
(lp2704
S':'
asbag57
(g78
g59
NtRp2705
(dp2706
g62
(dp2707
sg71
g2692
sg64
(lp2708
g57
(g58
g59
NtRp2709
(dp2710
g62
(dp2711
g70
I3
ssg71
g2705
sg64
(lp2712
g1245
asbasbasbag57
(g73
g59
NtRp2713
(dp2714
g62
(dp2715
sg71
g2646
sg64
(lp2716
g57
(g78
g59
NtRp2717
(dp2718
g62
(dp2719
g82
g83
ssg71
g2713
sg64
(lp2720
S'HTTP_ACCEPT_LANGUAGE'
p2721
asbag57
(g78
g59
NtRp2722
(dp2723
g62
(dp2724
g89
g90
ssg71
g2713
sg64
(lp2725
S':'
asbag57
(g78
g59
NtRp2726
(dp2727
g62
(dp2728
sg71
g2713
sg64
(lp2729
g57
(g58
g59
NtRp2730
(dp2731
g62
(dp2732
g70
I3
ssg71
g2726
sg64
(lp2733
g1267
asbasbasbag57
(g73
g59
NtRp2734
(dp2735
g62
(dp2736
sg71
g2646
sg64
(lp2737
g57
(g78
g59
NtRp2738
(dp2739
g62
(dp2740
g82
g83
ssg71
g2734
sg64
(lp2741
S'HTTP_CONNECTION'
p2742
asbag57
(g78
g59
NtRp2743
(dp2744
g62
(dp2745
g89
g90
ssg71
g2734
sg64
(lp2746
S':'
asbag57
(g78
g59
NtRp2747
(dp2748
g62
(dp2749
sg71
g2734
sg64
(lp2750
g57
(g58
g59
NtRp2751
(dp2752
g62
(dp2753
g70
I3
ssg71
g2747
sg64
(lp2754
g1289
asbasbasbag57
(g73
g59
NtRp2755
(dp2756
g62
(dp2757
sg71
g2646
sg64
(lp2758
g57
(g78
g59
NtRp2759
(dp2760
g62
(dp2761
g82
g83
ssg71
g2755
sg64
(lp2762
S'HTTP_COOKIE'
p2763
asbag57
(g78
g59
NtRp2764
(dp2765
g62
(dp2766
g89
g90
ssg71
g2755
sg64
(lp2767
S':'
asbag57
(g78
g59
NtRp2768
(dp2769
g62
(dp2770
sg71
g2755
sg64
(lp2771
g57
(g58
g59
NtRp2772
(dp2773
g62
(dp2774
g70
I3
ssg71
g2768
sg64
(lp2775
g1311
asbasbasbag57
(g73
g59
NtRp2776
(dp2777
g62
(dp2778
sg71
g2646
sg64
(lp2779
g57
(g78
g59
NtRp2780
(dp2781
g62
(dp2782
g82
g83
ssg71
g2776
sg64
(lp2783
S'HTTP_HOST'
p2784
asbag57
(g78
g59
NtRp2785
(dp2786
g62
(dp2787
g89
g90
ssg71
g2776
sg64
(lp2788
S':'
asbag57
(g78
g59
NtRp2789
(dp2790
g62
(dp2791
sg71
g2776
sg64
(lp2792
g57
(g58
g59
NtRp2793
(dp2794
g62
(dp2795
g70
I3
ssg71
g2789
sg64
(lp2796
g1333
asbasbasbag57
(g73
g59
NtRp2797
(dp2798
g62
(dp2799
sg71
g2646
sg64
(lp2800
g57
(g78
g59
NtRp2801
(dp2802
g62
(dp2803
g82
g83
ssg71
g2797
sg64
(lp2804
S'HTTP_REFERER'
p2805
asbag57
(g78
g59
NtRp2806
(dp2807
g62
(dp2808
g89
g90
ssg71
g2797
sg64
(lp2809
S':'
asbag57
(g78
g59
NtRp2810
(dp2811
g62
(dp2812
sg71
g2797
sg64
(lp2813
g57
(g58
g59
NtRp2814
(dp2815
g62
(dp2816
g70
I3
ssg71
g2810
sg64
(lp2817
g1355
asbasbasbag57
(g73
g59
NtRp2818
(dp2819
g62
(dp2820
sg71
g2646
sg64
(lp2821
g57
(g78
g59
NtRp2822
(dp2823
g62
(dp2824
g82
g83
ssg71
g2818
sg64
(lp2825
S'HTTP_USER_AGENT'
p2826
asbag57
(g78
g59
NtRp2827
(dp2828
g62
(dp2829
g89
g90
ssg71
g2818
sg64
(lp2830
S':'
asbag57
(g78
g59
NtRp2831
(dp2832
g62
(dp2833
sg71
g2818
sg64
(lp2834
g57
(g58
g59
NtRp2835
(dp2836
g62
(dp2837
g70
I3
ssg71
g2831
sg64
(lp2838
g1377
asbasbasbag57
(g73
g59
NtRp2839
(dp2840
g62
(dp2841
sg71
g2646
sg64
(lp2842
g57
(g78
g59
NtRp2843
(dp2844
g62
(dp2845
g82
g83
ssg71
g2839
sg64
(lp2846
S'PATH_INFO'
p2847
asbag57
(g78
g59
NtRp2848
(dp2849
g62
(dp2850
g89
g90
ssg71
g2839
sg64
(lp2851
S':'
asbag57
(g78
g59
NtRp2852
(dp2853
g62
(dp2854
sg71
g2839
sg64
(lp2855
g57
(g58
g59
NtRp2856
(dp2857
g62
(dp2858
g70
I3
ssg71
g2852
sg64
(lp2859
g1441
asbasbasbag57
(g73
g59
NtRp2860
(dp2861
g62
(dp2862
sg71
g2646
sg64
(lp2863
g57
(g78
g59
NtRp2864
(dp2865
g62
(dp2866
g82
g83
ssg71
g2860
sg64
(lp2867
S'QUERY_STRING'
p2868
asbag57
(g78
g59
NtRp2869
(dp2870
g62
(dp2871
g89
g90
ssg71
g2860
sg64
(lp2872
S':'
asbag57
(g78
g59
NtRp2873
(dp2874
g62
(dp2875
sg71
g2860
sg64
(lp2876
g57
(g58
g59
NtRp2877
(dp2878
g62
(dp2879
g70
I3
ssg71
g2873
sg64
(lp2880
S''
asbasbasbag57
(g73
g59
NtRp2881
(dp2882
g62
(dp2883
sg71
g2646
sg64
(lp2884
g57
(g78
g59
NtRp2885
(dp2886
g62
(dp2887
g82
g83
ssg71
g2881
sg64
(lp2888
S'REMOTE_ADDR'
p2889
asbag57
(g78
g59
NtRp2890
(dp2891
g62
(dp2892
g89
g90
ssg71
g2881
sg64
(lp2893
S':'
asbag57
(g78
g59
NtRp2894
(dp2895
g62
(dp2896
sg71
g2881
sg64
(lp2897
g57
(g58
g59
NtRp2898
(dp2899
g62
(dp2900
g70
I3
ssg71
g2894
sg64
(lp2901
g203
asbasbasbag57
(g73
g59
NtRp2902
(dp2903
g62
(dp2904
sg71
g2646
sg64
(lp2905
g57
(g78
g59
NtRp2906
(dp2907
g62
(dp2908
g82
g83
ssg71
g2902
sg64
(lp2909
S'REMOTE_PORT'
p2910
asbag57
(g78
g59
NtRp2911
(dp2912
g62
(dp2913
g89
g90
ssg71
g2902
sg64
(lp2914
S':'
asbag57
(g78
g59
NtRp2915
(dp2916
g62
(dp2917
sg71
g2902
sg64
(lp2918
g57
(g58
g59
NtRp2919
(dp2920
g62
(dp2921
g70
I3
ssg71
g2915
sg64
(lp2922
g1505
asbasbasbag57
(g73
g59
NtRp2923
(dp2924
g62
(dp2925
sg71
g2646
sg64
(lp2926
g57
(g78
g59
NtRp2927
(dp2928
g62
(dp2929
g82
g83
ssg71
g2923
sg64
(lp2930
S'REQUEST_METHOD'
p2931
asbag57
(g78
g59
NtRp2932
(dp2933
g62
(dp2934
g89
g90
ssg71
g2923
sg64
(lp2935
S':'
asbag57
(g78
g59
NtRp2936
(dp2937
g62
(dp2938
sg71
g2923
sg64
(lp2939
g57
(g58
g59
NtRp2940
(dp2941
g62
(dp2942
g70
I3
ssg71
g2936
sg64
(lp2943
g1527
asbasbasbag57
(g73
g59
NtRp2944
(dp2945
g62
(dp2946
sg71
g2646
sg64
(lp2947
g57
(g78
g59
NtRp2948
(dp2949
g62
(dp2950
g82
g83
ssg71
g2944
sg64
(lp2951
S'SCRIPT_NAME'
p2952
asbag57
(g78
g59
NtRp2953
(dp2954
g62
(dp2955
g89
g90
ssg71
g2944
sg64
(lp2956
S':'
asbag57
(g78
g59
NtRp2957
(dp2958
g62
(dp2959
sg71
g2944
sg64
(lp2960
g57
(g58
g59
NtRp2961
(dp2962
g62
(dp2963
g70
I3
ssg71
g2957
sg64
(lp2964
S''
asbasbasbag57
(g73
g59
NtRp2965
(dp2966
g62
(dp2967
sg71
g2646
sg64
(lp2968
g57
(g78
g59
NtRp2969
(dp2970
g62
(dp2971
g82
g83
ssg71
g2965
sg64
(lp2972
S'SERVER_NAME'
p2973
asbag57
(g78
g59
NtRp2974
(dp2975
g62
(dp2976
g89
g90
ssg71
g2965
sg64
(lp2977
S':'
asbag57
(g78
g59
NtRp2978
(dp2979
g62
(dp2980
sg71
g2965
sg64
(lp2981
g57
(g58
g59
NtRp2982
(dp2983
g62
(dp2984
g70
I3
ssg71
g2978
sg64
(lp2985
g1570
asbasbasbag57
(g73
g59
NtRp2986
(dp2987
g62
(dp2988
sg71
g2646
sg64
(lp2989
g57
(g78
g59
NtRp2990
(dp2991
g62
(dp2992
g82
g83
ssg71
g2986
sg64
(lp2993
S'SERVER_PORT'
p2994
asbag57
(g78
g59
NtRp2995
(dp2996
g62
(dp2997
g89
g90
ssg71
g2986
sg64
(lp2998
S':'
asbag57
(g78
g59
NtRp2999
(dp3000
g62
(dp3001
sg71
g2986
sg64
(lp3002
g57
(g58
g59
NtRp3003
(dp3004
g62
(dp3005
g70
I3
ssg71
g2999
sg64
(lp3006
g1592
asbasbasbag57
(g73
g59
NtRp3007
(dp3008
g62
(dp3009
sg71
g2646
sg64
(lp3010
g57
(g78
g59
NtRp3011
(dp3012
g62
(dp3013
g82
g83
ssg71
g3007
sg64
(lp3014
S'SERVER_PROTOCOL'
p3015
asbag57
(g78
g59
NtRp3016
(dp3017
g62
(dp3018
g89
g90
ssg71
g3007
sg64
(lp3019
S':'
asbag57
(g78
g59
NtRp3020
(dp3021
g62
(dp3022
sg71
g3007
sg64
(lp3023
g57
(g58
g59
NtRp3024
(dp3025
g62
(dp3026
g70
I3
ssg71
g3020
sg64
(lp3027
g1614
asbasbasbag57
(g73
g59
NtRp3028
(dp3029
g62
(dp3030
sg71
g2646
sg64
(lp3031
g57
(g78
g59
NtRp3032
(dp3033
g62
(dp3034
g82
g83
ssg71
g3028
sg64
(lp3035
S'SERVER_SOFTWARE'
p3036
asbag57
(g78
g59
NtRp3037
(dp3038
g62
(dp3039
g89
g90
ssg71
g3028
sg64
(lp3040
S':'
asbag57
(g78
g59
NtRp3041
(dp3042
g62
(dp3043
sg71
g3028
sg64
(lp3044
g57
(g58
g59
NtRp3045
(dp3046
g62
(dp3047
g70
I3
ssg71
g3041
sg64
(lp3048
g1636
asbasbasbag57
(g73
g59
NtRp3049
(dp3050
g62
(dp3051
sg71
g2646
sg64
(lp3052
g57
(g78
g59
NtRp3053
(dp3054
g62
(dp3055
g82
g83
ssg71
g3049
sg64
(lp3056
S'wsgi.errors'
p3057
asbag57
(g78
g59
NtRp3058
(dp3059
g62
(dp3060
g89
g90
ssg71
g3049
sg64
(lp3061
S':'
asbag57
(g78
g59
NtRp3062
(dp3063
g62
(dp3064
sg71
g3049
sg64
(lp3065
g57
(g58
g59
NtRp3066
(dp3067
g62
(dp3068
g70
I3
ssg71
g3062
sg64
(lp3069
S"<open file '<stderr>', mode 'w' at 0xb728a0d0>"
p3070
asbasbasbag57
(g73
g59
NtRp3071
(dp3072
g62
(dp3073
sg71
g2646
sg64
(lp3074
g57
(g78
g59
NtRp3075
(dp3076
g62
(dp3077
g82
g83
ssg71
g3071
sg64
(lp3078
S'wsgi.file_wrapper'
p3079
asbag57
(g78
g59
NtRp3080
(dp3081
g62
(dp3082
g89
g90
ssg71
g3071
sg64
(lp3083
S':'
asbag57
(g78
g59
NtRp3084
(dp3085
g62
(dp3086
sg71
g3071
sg64
(lp3087
g57
(g58
g59
NtRp3088
(dp3089
g62
(dp3090
g70
I3
ssg71
g3084
sg64
(lp3091
S'<class wsgiref.util.FileWrapper at 0x918ce9c>'
p3092
asbasbasbag57
(g73
g59
NtRp3093
(dp3094
g62
(dp3095
sg71
g2646
sg64
(lp3096
g57
(g78
g59
NtRp3097
(dp3098
g62
(dp3099
g82
g83
ssg71
g3093
sg64
(lp3100
S'wsgi.input'
p3101
asbag57
(g78
g59
NtRp3102
(dp3103
g62
(dp3104
g89
g90
ssg71
g3093
sg64
(lp3105
S':'
asbag57
(g78
g59
NtRp3106
(dp3107
g62
(dp3108
sg71
g3093
sg64
(lp3109
g57
(g58
g59
NtRp3110
(dp3111
g62
(dp3112
g70
I3
ssg71
g3106
sg64
(lp3113
S'<cStringIO.StringO object at 0xaf37f6c0>'
p3114
asbasbasbag57
(g73
g59
NtRp3115
(dp3116
g62
(dp3117
sg71
g2646
sg64
(lp3118
g57
(g78
g59
NtRp3119
(dp3120
g62
(dp3121
g82
g83
ssg71
g3115
sg64
(lp3122
S'wsgi.multiprocess'
p3123
asbag57
(g78
g59
NtRp3124
(dp3125
g62
(dp3126
g89
g90
ssg71
g3115
sg64
(lp3127
S':'
asbag57
(g78
g59
NtRp3128
(dp3129
g62
(dp3130
sg71
g3115
sg64
(lp3131
g57
(g58
g59
NtRp3132
(dp3133
g62
(dp3134
g70
I3
ssg71
g3128
sg64
(lp3135
g100
asbasbasbag57
(g73
g59
NtRp3136
(dp3137
g62
(dp3138
sg71
g2646
sg64
(lp3139
g57
(g78
g59
NtRp3140
(dp3141
g62
(dp3142
g82
g83
ssg71
g3136
sg64
(lp3143
S'wsgi.multithread'
p3144
asbag57
(g78
g59
NtRp3145
(dp3146
g62
(dp3147
g89
g90
ssg71
g3136
sg64
(lp3148
S':'
asbag57
(g78
g59
NtRp3149
(dp3150
g62
(dp3151
sg71
g3136
sg64
(lp3152
g57
(g58
g59
NtRp3153
(dp3154
g62
(dp3155
g70
I3
ssg71
g3149
sg64
(lp3156
g1876
asbasbasbag57
(g73
g59
NtRp3157
(dp3158
g62
(dp3159
sg71
g2646
sg64
(lp3160
g57
(g78
g59
NtRp3161
(dp3162
g62
(dp3163
g82
g83
ssg71
g3157
sg64
(lp3164
S'wsgi.run_once'
p3165
asbag57
(g78
g59
NtRp3166
(dp3167
g62
(dp3168
g89
g90
ssg71
g3157
sg64
(lp3169
S':'
asbag57
(g78
g59
NtRp3170
(dp3171
g62
(dp3172
sg71
g3157
sg64
(lp3173
g57
(g58
g59
NtRp3174
(dp3175
g62
(dp3176
g70
I3
ssg71
g3170
sg64
(lp3177
g100
asbasbasbag57
(g73
g59
NtRp3178
(dp3179
g62
(dp3180
sg71
g2646
sg64
(lp3181
g57
(g78
g59
NtRp3182
(dp3183
g62
(dp3184
g82
g83
ssg71
g3178
sg64
(lp3185
S'wsgi.url_scheme'
p3186
asbag57
(g78
g59
NtRp3187
(dp3188
g62
(dp3189
g89
g90
ssg71
g3178
sg64
(lp3190
S':'
asbag57
(g78
g59
NtRp3191
(dp3192
g62
(dp3193
sg71
g3178
sg64
(lp3194
g57
(g58
g59
NtRp3195
(dp3196
g62
(dp3197
g70
I3
ssg71
g3191
sg64
(lp3198
g1919
asbasbasbag57
(g73
g59
NtRp3199
(dp3200
g62
(dp3201
sg71
g2646
sg64
(lp3202
g57
(g78
g59
NtRp3203
(dp3204
g62
(dp3205
g82
g83
ssg71
g3199
sg64
(lp3206
S'wsgi.version'
p3207
asbag57
(g78
g59
NtRp3208
(dp3209
g62
(dp3210
g89
g90
ssg71
g3199
sg64
(lp3211
S':'
asbag57
(g78
g59
NtRp3212
(dp3213
g62
(dp3214
sg71
g3199
sg64
(lp3215
g57
(g58
g59
NtRp3216
(dp3217
g62
(dp3218
g70
I3
ssg71
g3212
sg64
(lp3219
S'1'
asbasbasbasbasbasbasbasbasbasbasbasbasbsS'frames'
p3220
(lp3221
(dp3222
S'file'
p3223
S'/home/manikanta/Study/web2py/gluon/restricted.py'
p3224
sS'dump'
p3225
(dp3226
S'environment'
p3227
S"{'A': <class 'gluon.html.A'>, 'Auth': <class 'gluon.tools.Auth'>, 'B': <class 'gluon.html.B'>, 'BEAUTIFY': <class 'gluon.html.BEAUTIFY'>, 'BODY': <class 'gluon.html.BODY'>, 'BR': <class 'gluon.html.BR'>, 'BUTTON': <class 'gluon.html.BUTTON'>, 'CAT': <class 'gluon.html.CAT'>, 'CENTER': <class 'gluon.html.CENTER'>, 'CLEANUP': <class 'gluon.validators.CLEANUP'>, ...}"
p3228
sS'ccode'
p3229
S'<code object <module> at 0xaf227578, file "/home...ons/Just_Click_/views/default/show.html", line 1>'
p3230
ssS'lnum'
p3231
I205
sS'lines'
p3232
(dp3233
I200
S'    try:'
p3234
sI201
S'        if type(code) == types.CodeType:'
p3235
sI202
S'            ccode = code'
p3236
sI203
S'        else:'
p3237
sI204
S'            ccode = compile2(code,layer)'
p3238
sI205
S'        exec ccode in environment'
p3239
sI206
S'    except HTTP:'
p3240
sI207
S'        raise'
p3241
sI208
S'    except RestrictedError:'
p3242
sI209
S'        # do not encapsulate (obfuscate) the original RestrictedError'
p3243
ssS'call'
p3244
S'(code=r"response.write(\'<!DOCTYPE html>\\n<!-- paulirish....ponse.write(\'\\n</body>\\n</html>\\n\', escape=False)", environment={\'A\': <class \'gluon.html.A\'>, \'Auth\': <class \'gluon.tools.Auth\'>, \'B\': <class \'gluon.html.B\'>, \'BEAUTIFY\': <class \'gluon.html.BEAUTIFY\'>, \'BODY\': <class \'gluon.html.BODY\'>, \'BR\': <class \'gluon.html.BR\'>, \'BUTTON\': <class \'gluon.html.BUTTON\'>, \'CAT\': <class \'gluon.html.CAT\'>, \'CENTER\': <class \'gluon.html.CENTER\'>, \'CLEANUP\': <class \'gluon.validators.CLEANUP\'>, ...}, layer=\'/home/manikanta/Study/web2py/applications/Just_Click_/views/default/show.html\')'
p3245
sS'func'
p3246
S'restricted'
p3247
sa(dp3248
g3223
S'/home/manikanta/Study/web2py/applications/Just_Click_/views/default/show.html'
p3249
sg3225
(dp3250
sg3231
I90
sg3232
(dp3251
I96
S'response.write(image.likecount)'
p3252
sI97
S"response.write('\\n<table border=0>\\n<tr>\\n<td>\\n', escape=False)"
p3253
sI98
S'if not db(w==db.like.name)(image.id==db.like.imageid).select(db.like.ALL):'
p3254
sI99
S"    response.write('\\n', escape=False)"
p3255
sI100
S'    response.write(LI(A(\'Like\' , _href=URL("like" , args=[w,image.id,image.likecount+1]))))'
p3256
sI81
S'response.write(\'\\n        \\n        <div class="\', escape=False)'
p3257
sI82
S'response.write(middle_columns)'
p3258
sI83
S'response.write(\' columns center">\\n          \', escape=False)'
p3259
sI84
S"response.write('\\n          ', escape=False)"
p3260
sI85
S"response.write('\\n\\n<p>\\n', escape=False)"
p3261
sI86
S'response.write(LI(A("UPLOAD IMAGE HERE " , _href=URL("upload" , args=123))))'
p3262
sI87
S"response.write('\\n<p>\\n', escape=False)"
p3263
sI88
S"w = auth.user.first_name+'_'+auth.user.last_name"
p3264
sI89
S"response.write('\\n\\n<table border=0>\\n<tr>\\n<td>\\n<h4>Image Posted by ', escape=False)"
p3265
sI90
S'response.write(image.uploaded_by)'
p3266
sI91
S"response.write(': ', escape=False)"
p3267
sI92
S'response.write(image.title)'
p3268
sI93
S'response.write(\'</h4>\\n<center>\\n<img width="600px"\\n     src="\', escape=False)'
p3269
sI94
S"response.write(URL('download', args=image.file))"
p3270
sI95
S'response.write(\'" />\\n</center>\\nNO. OF LIKES : \', escape=False)'
p3271
ssg3244
S'()'
p3272
sg3246
S'<module>'
p3273
sasS'pyver'
p3274
S'Python 2.7.3: /usr/bin/python'
p3275
sS'session'
p3276
g57
(g58
g59
NtRp3277
(dp3278
g62
(dp3279
sg64
(lp3280
g57
(g66
g59
NtRp3281
(dp3282
g62
(dp3283
g70
I5
ssg71
Nsg64
(lp3284
g57
(g73
g59
NtRp3285
(dp3286
g62
(dp3287
sg71
g3281
sg64
(lp3288
g57
(g78
g59
NtRp3289
(dp3290
g62
(dp3291
g82
g83
ssg71
g3285
sg64
(lp3292
S'auth'
p3293
asbag57
(g78
g59
NtRp3294
(dp3295
g62
(dp3296
g89
g90
ssg71
g3285
sg64
(lp3297
S':'
asbag57
(g78
g59
NtRp3298
(dp3299
g62
(dp3300
sg71
g3285
sg64
(lp3301
g57
(g58
g59
NtRp3302
(dp3303
g62
(dp3304
g70
I5
ssg71
g3298
sg64
(lp3305
g57
(g66
g59
NtRp3306
(dp3307
g62
(dp3308
g70
I4
ssg71
Nsg64
(lp3309
g57
(g73
g59
NtRp3310
(dp3311
g62
(dp3312
sg71
g3306
sg64
(lp3313
g57
(g78
g59
NtRp3314
(dp3315
g62
(dp3316
g82
g83
ssg71
g3310
sg64
(lp3317
S'expiration'
p3318
asbag57
(g78
g59
NtRp3319
(dp3320
g62
(dp3321
g89
g90
ssg71
g3310
sg64
(lp3322
S':'
asbag57
(g78
g59
NtRp3323
(dp3324
g62
(dp3325
sg71
g3310
sg64
(lp3326
g57
(g58
g59
NtRp3327
(dp3328
g62
(dp3329
g70
I4
ssg71
g3323
sg64
(lp3330
S'3600'
p3331
asbasbasbag57
(g73
g59
NtRp3332
(dp3333
g62
(dp3334
sg71
g3306
sg64
(lp3335
g57
(g78
g59
NtRp3336
(dp3337
g62
(dp3338
g82
g83
ssg71
g3332
sg64
(lp3339
S'hmac_key'
p3340
asbag57
(g78
g59
NtRp3341
(dp3342
g62
(dp3343
g89
g90
ssg71
g3332
sg64
(lp3344
S':'
asbag57
(g78
g59
NtRp3345
(dp3346
g62
(dp3347
sg71
g3332
sg64
(lp3348
g57
(g58
g59
NtRp3349
(dp3350
g62
(dp3351
g70
I4
ssg71
g3345
sg64
(lp3352
S'2a3a665d-2193-4601-ac94-d1b21706a0f7'
p3353
asbasbasbag57
(g73
g59
NtRp3354
(dp3355
g62
(dp3356
sg71
g3306
sg64
(lp3357
g57
(g78
g59
NtRp3358
(dp3359
g62
(dp3360
g82
g83
ssg71
g3354
sg64
(lp3361
S'last_visit'
p3362
asbag57
(g78
g59
NtRp3363
(dp3364
g62
(dp3365
g89
g90
ssg71
g3354
sg64
(lp3366
S':'
asbag57
(g78
g59
NtRp3367
(dp3368
g62
(dp3369
sg71
g3354
sg64
(lp3370
g57
(g58
g59
NtRp3371
(dp3372
g62
(dp3373
g70
I4
ssg71
g3367
sg64
(lp3374
S'datetime.datetime(2012, 9, 11, 17, 48, 3, 424972)'
p3375
asbasbasbag57
(g73
g59
NtRp3376
(dp3377
g62
(dp3378
sg71
g3306
sg64
(lp3379
g57
(g78
g59
NtRp3380
(dp3381
g62
(dp3382
g82
g83
ssg71
g3376
sg64
(lp3383
S'remember'
p3384
asbag57
(g78
g59
NtRp3385
(dp3386
g62
(dp3387
g89
g90
ssg71
g3376
sg64
(lp3388
S':'
asbag57
(g78
g59
NtRp3389
(dp3390
g62
(dp3391
sg71
g3376
sg64
(lp3392
g57
(g58
g59
NtRp3393
(dp3394
g62
(dp3395
g70
I4
ssg71
g3389
sg64
(lp3396
g100
asbasbasbag57
(g73
g59
NtRp3397
(dp3398
g62
(dp3399
sg71
g3306
sg64
(lp3400
g57
(g78
g59
NtRp3401
(dp3402
g62
(dp3403
g82
g83
ssg71
g3397
sg64
(lp3404
S'user'
p3405
asbag57
(g78
g59
NtRp3406
(dp3407
g62
(dp3408
g89
g90
ssg71
g3397
sg64
(lp3409
S':'
asbag57
(g78
g59
NtRp3410
(dp3411
g62
(dp3412
sg71
g3397
sg64
(lp3413
g57
(g58
g59
NtRp3414
(dp3415
g62
(dp3416
g70
I4
ssg71
g3410
sg64
(lp3417
g57
(g66
g59
NtRp3418
(dp3419
g62
(dp3420
g70
I3
ssg71
Nsg64
(lp3421
g57
(g73
g59
NtRp3422
(dp3423
g62
(dp3424
sg71
g3418
sg64
(lp3425
g57
(g78
g59
NtRp3426
(dp3427
g62
(dp3428
g82
g83
ssg71
g3422
sg64
(lp3429
S'email'
p3430
asbag57
(g78
g59
NtRp3431
(dp3432
g62
(dp3433
g89
g90
ssg71
g3422
sg64
(lp3434
S':'
asbag57
(g78
g59
NtRp3435
(dp3436
g62
(dp3437
sg71
g3422
sg64
(lp3438
g57
(g58
g59
NtRp3439
(dp3440
g62
(dp3441
g70
I3
ssg71
g3435
sg64
(lp3442
S'admin@gmail.com'
p3443
asbasbasbag57
(g73
g59
NtRp3444
(dp3445
g62
(dp3446
sg71
g3418
sg64
(lp3447
g57
(g78
g59
NtRp3448
(dp3449
g62
(dp3450
g82
g83
ssg71
g3444
sg64
(lp3451
S'first_name'
p3452
asbag57
(g78
g59
NtRp3453
(dp3454
g62
(dp3455
g89
g90
ssg71
g3444
sg64
(lp3456
S':'
asbag57
(g78
g59
NtRp3457
(dp3458
g62
(dp3459
sg71
g3444
sg64
(lp3460
g57
(g58
g59
NtRp3461
(dp3462
g62
(dp3463
g70
I3
ssg71
g3457
sg64
(lp3464
S'Admin'
p3465
asbasbasbag57
(g73
g59
NtRp3466
(dp3467
g62
(dp3468
sg71
g3418
sg64
(lp3469
g57
(g78
g59
NtRp3470
(dp3471
g62
(dp3472
g82
g83
ssg71
g3466
sg64
(lp3473
S'id'
p3474
asbag57
(g78
g59
NtRp3475
(dp3476
g62
(dp3477
g89
g90
ssg71
g3466
sg64
(lp3478
S':'
asbag57
(g78
g59
NtRp3479
(dp3480
g62
(dp3481
sg71
g3466
sg64
(lp3482
g57
(g58
g59
NtRp3483
(dp3484
g62
(dp3485
g70
I3
ssg71
g3479
sg64
(lp3486
S'4'
asbasbasbag57
(g73
g59
NtRp3487
(dp3488
g62
(dp3489
sg71
g3418
sg64
(lp3490
g57
(g78
g59
NtRp3491
(dp3492
g62
(dp3493
g82
g83
ssg71
g3487
sg64
(lp3494
S'last_name'
p3495
asbag57
(g78
g59
NtRp3496
(dp3497
g62
(dp3498
g89
g90
ssg71
g3487
sg64
(lp3499
S':'
asbag57
(g78
g59
NtRp3500
(dp3501
g62
(dp3502
sg71
g3487
sg64
(lp3503
g57
(g58
g59
NtRp3504
(dp3505
g62
(dp3506
g70
I3
ssg71
g3500
sg64
(lp3507
S'1'
asbasbasbag57
(g73
g59
NtRp3508
(dp3509
g62
(dp3510
sg71
g3418
sg64
(lp3511
g57
(g78
g59
NtRp3512
(dp3513
g62
(dp3514
g82
g83
ssg71
g3508
sg64
(lp3515
S'password'
p3516
asbag57
(g78
g59
NtRp3517
(dp3518
g62
(dp3519
g89
g90
ssg71
g3508
sg64
(lp3520
S':'
asbag57
(g78
g59
NtRp3521
(dp3522
g62
(dp3523
sg71
g3508
sg64
(lp3524
g57
(g58
g59
NtRp3525
(dp3526
g62
(dp3527
g70
I3
ssg71
g3521
sg64
(lp3528
S'21232f297a57a5a743894a0e4a801fc3'
p3529
asbasbasbag57
(g73
g59
NtRp3530
(dp3531
g62
(dp3532
sg71
g3418
sg64
(lp3533
g57
(g78
g59
NtRp3534
(dp3535
g62
(dp3536
g82
g83
ssg71
g3530
sg64
(lp3537
S'registration_id'
p3538
asbag57
(g78
g59
NtRp3539
(dp3540
g62
(dp3541
g89
g90
ssg71
g3530
sg64
(lp3542
S':'
asbag57
(g78
g59
NtRp3543
(dp3544
g62
(dp3545
sg71
g3530
sg64
(lp3546
g57
(g58
g59
NtRp3547
(dp3548
g62
(dp3549
g70
I3
ssg71
g3543
sg64
(lp3550
S''
asbasbasbag57
(g73
g59
NtRp3551
(dp3552
g62
(dp3553
sg71
g3418
sg64
(lp3554
g57
(g78
g59
NtRp3555
(dp3556
g62
(dp3557
g82
g83
ssg71
g3551
sg64
(lp3558
S'registration_key'
p3559
asbag57
(g78
g59
NtRp3560
(dp3561
g62
(dp3562
g89
g90
ssg71
g3551
sg64
(lp3563
S':'
asbag57
(g78
g59
NtRp3564
(dp3565
g62
(dp3566
sg71
g3551
sg64
(lp3567
g57
(g58
g59
NtRp3568
(dp3569
g62
(dp3570
g70
I3
ssg71
g3564
sg64
(lp3571
S''
asbasbasbag57
(g73
g59
NtRp3572
(dp3573
g62
(dp3574
sg71
g3418
sg64
(lp3575
g57
(g78
g59
NtRp3576
(dp3577
g62
(dp3578
g82
g83
ssg71
g3572
sg64
(lp3579
S'reset_password_key'
p3580
asbag57
(g78
g59
NtRp3581
(dp3582
g62
(dp3583
g89
g90
ssg71
g3572
sg64
(lp3584
S':'
asbag57
(g78
g59
NtRp3585
(dp3586
g62
(dp3587
sg71
g3572
sg64
(lp3588
g57
(g58
g59
NtRp3589
(dp3590
g62
(dp3591
g70
I3
ssg71
g3585
sg64
(lp3592
S''
asbasbasbasbasbasbasbag57
(g73
g59
NtRp3593
(dp3594
g62
(dp3595
sg71
g3306
sg64
(lp3596
g57
(g78
g59
NtRp3597
(dp3598
g62
(dp3599
g82
g83
ssg71
g3593
sg64
(lp3600
S'user_groups'
p3601
asbag57
(g78
g59
NtRp3602
(dp3603
g62
(dp3604
g89
g90
ssg71
g3593
sg64
(lp3605
S':'
asbag57
(g78
g59
NtRp3606
(dp3607
g62
(dp3608
sg71
g3593
sg64
(lp3609
g57
(g58
g59
NtRp3610
(dp3611
g62
(dp3612
g70
I4
ssg71
g3606
sg64
(lp3613
g57
(g66
g59
NtRp3614
(dp3615
g62
(dp3616
g70
I3
ssg71
Nsg64
(lp3617
g57
(g73
g59
NtRp3618
(dp3619
g62
(dp3620
sg71
g3614
sg64
(lp3621
g57
(g78
g59
NtRp3622
(dp3623
g62
(dp3624
g82
g83
ssg71
g3618
sg64
(lp3625
S'4'
asbag57
(g78
g59
NtRp3626
(dp3627
g62
(dp3628
g89
g90
ssg71
g3618
sg64
(lp3629
S':'
asbag57
(g78
g59
NtRp3630
(dp3631
g62
(dp3632
sg71
g3618
sg64
(lp3633
g57
(g58
g59
NtRp3634
(dp3635
g62
(dp3636
g70
I3
ssg71
g3630
sg64
(lp3637
S'user_4'
p3638
asbasbasbag57
(g73
g59
NtRp3639
(dp3640
g62
(dp3641
sg71
g3614
sg64
(lp3642
g57
(g78
g59
NtRp3643
(dp3644
g62
(dp3645
g82
g83
ssg71
g3639
sg64
(lp3646
S'5'
asbag57
(g78
g59
NtRp3647
(dp3648
g62
(dp3649
g89
g90
ssg71
g3639
sg64
(lp3650
S':'
asbag57
(g78
g59
NtRp3651
(dp3652
g62
(dp3653
sg71
g3639
sg64
(lp3654
g57
(g58
g59
NtRp3655
(dp3656
g62
(dp3657
g70
I3
ssg71
g3651
sg64
(lp3658
S'Admin'
p3659
asbasbasbasbasbasbasbasbasbasbasbasbasbsS'etype'
p3660
S"<type 'exceptions.AttributeError'>"
p3661
sS'date'
p3662
S'Tue Sep 11 17:50:16 2012'
p3663
sS'response'
p3664
g57
(g58
g59
NtRp3665
(dp3666
g62
(dp3667
sg64
(lp3668
g57
(g66
g59
NtRp3669
(dp3670
g62
(dp3671
g70
I5
ssg71
Nsg64
(lp3672
g57
(g73
g59
NtRp3673
(dp3674
g62
(dp3675
sg71
g3669
sg64
(lp3676
g57
(g78
g59
NtRp3677
(dp3678
g62
(dp3679
g82
g83
ssg71
g3673
sg64
(lp3680
g168
asbag57
(g78
g59
NtRp3681
(dp3682
g62
(dp3683
g89
g90
ssg71
g3673
sg64
(lp3684
S':'
asbag57
(g78
g59
NtRp3685
(dp3686
g62
(dp3687
sg71
g3673
sg64
(lp3688
g57
(g58
g59
NtRp3689
(dp3690
g62
(dp3691
g70
I5
ssg71
g3685
sg64
(lp3692
S'<cStringIO.StringO object at 0xaf228dc0>'
p3693
asbasbasbag57
(g73
g59
NtRp3694
(dp3695
g62
(dp3696
sg71
g3669
sg64
(lp3697
g57
(g78
g59
NtRp3698
(dp3699
g62
(dp3700
g82
g83
ssg71
g3694
sg64
(lp3701
g234
asbag57
(g78
g59
NtRp3702
(dp3703
g62
(dp3704
g89
g90
ssg71
g3694
sg64
(lp3705
S':'
asbag57
(g78
g59
NtRp3706
(dp3707
g62
(dp3708
sg71
g3694
sg64
(lp3709
g57
(g58
g59
NtRp3710
(dp3711
g62
(dp3712
g70
I5
ssg71
g3706
sg64
(lp3713
g57
(g66
g59
NtRp3714
(dp3715
g62
(dp3716
g70
I4
ssg71
Nsg64
(lp3717
g57
(g73
g59
NtRp3718
(dp3719
g62
(dp3720
sg71
g3714
sg64
(lp3721
g57
(g78
g59
NtRp3722
(dp3723
g62
(dp3724
g82
g83
ssg71
g3718
sg64
(lp3725
S'session_id_just_click_'
p3726
asbag57
(g78
g59
NtRp3727
(dp3728
g62
(dp3729
g89
g90
ssg71
g3718
sg64
(lp3730
S':'
asbag57
(g78
g59
NtRp3731
(dp3732
g62
(dp3733
sg71
g3718
sg64
(lp3734
g57
(g58
g59
NtRp3735
(dp3736
g62
(dp3737
g70
I4
ssg71
g3731
sg64
(lp3738
g57
(g66
g59
NtRp3739
(dp3740
g62
(dp3741
g70
I3
ssg71
Nsg64
(lp3742
g57
(g73
g59
NtRp3743
(dp3744
g62
(dp3745
sg71
g3739
sg64
(lp3746
g57
(g78
g59
NtRp3747
(dp3748
g62
(dp3749
g82
g83
ssg71
g3743
sg64
(lp3750
g284
asbag57
(g78
g59
NtRp3751
(dp3752
g62
(dp3753
g89
g90
ssg71
g3743
sg64
(lp3754
S':'
asbag57
(g78
g59
NtRp3755
(dp3756
g62
(dp3757
sg71
g3743
sg64
(lp3758
g57
(g58
g59
NtRp3759
(dp3760
g62
(dp3761
g70
I3
ssg71
g3755
sg64
(lp3762
S''
asbasbasbag57
(g73
g59
NtRp3763
(dp3764
g62
(dp3765
sg71
g3739
sg64
(lp3766
g57
(g78
g59
NtRp3767
(dp3768
g62
(dp3769
g82
g83
ssg71
g3763
sg64
(lp3770
g305
asbag57
(g78
g59
NtRp3771
(dp3772
g62
(dp3773
g89
g90
ssg71
g3763
sg64
(lp3774
S':'
asbag57
(g78
g59
NtRp3775
(dp3776
g62
(dp3777
sg71
g3763
sg64
(lp3778
g57
(g58
g59
NtRp3779
(dp3780
g62
(dp3781
g70
I3
ssg71
g3775
sg64
(lp3782
S''
asbasbasbag57
(g73
g59
NtRp3783
(dp3784
g62
(dp3785
sg71
g3739
sg64
(lp3786
g57
(g78
g59
NtRp3787
(dp3788
g62
(dp3789
g82
g83
ssg71
g3783
sg64
(lp3790
g326
asbag57
(g78
g59
NtRp3791
(dp3792
g62
(dp3793
g89
g90
ssg71
g3783
sg64
(lp3794
S':'
asbag57
(g78
g59
NtRp3795
(dp3796
g62
(dp3797
sg71
g3783
sg64
(lp3798
g57
(g58
g59
NtRp3799
(dp3800
g62
(dp3801
g70
I3
ssg71
g3795
sg64
(lp3802
S''
asbasbasbag57
(g73
g59
NtRp3803
(dp3804
g62
(dp3805
sg71
g3739
sg64
(lp3806
g57
(g78
g59
NtRp3807
(dp3808
g62
(dp3809
g82
g83
ssg71
g3803
sg64
(lp3810
g347
asbag57
(g78
g59
NtRp3811
(dp3812
g62
(dp3813
g89
g90
ssg71
g3803
sg64
(lp3814
S':'
asbag57
(g78
g59
NtRp3815
(dp3816
g62
(dp3817
sg71
g3803
sg64
(lp3818
g57
(g58
g59
NtRp3819
(dp3820
g62
(dp3821
g70
I3
ssg71
g3815
sg64
(lp3822
S''
asbasbasbag57
(g73
g59
NtRp3823
(dp3824
g62
(dp3825
sg71
g3739
sg64
(lp3826
g57
(g78
g59
NtRp3827
(dp3828
g62
(dp3829
g82
g83
ssg71
g3823
sg64
(lp3830
g368
asbag57
(g78
g59
NtRp3831
(dp3832
g62
(dp3833
g89
g90
ssg71
g3823
sg64
(lp3834
S':'
asbag57
(g78
g59
NtRp3835
(dp3836
g62
(dp3837
sg71
g3823
sg64
(lp3838
g57
(g58
g59
NtRp3839
(dp3840
g62
(dp3841
g70
I3
ssg71
g3835
sg64
(lp3842
S''
asbasbasbag57
(g73
g59
NtRp3843
(dp3844
g62
(dp3845
sg71
g3739
sg64
(lp3846
g57
(g78
g59
NtRp3847
(dp3848
g62
(dp3849
g82
g83
ssg71
g3843
sg64
(lp3850
g389
asbag57
(g78
g59
NtRp3851
(dp3852
g62
(dp3853
g89
g90
ssg71
g3843
sg64
(lp3854
S':'
asbag57
(g78
g59
NtRp3855
(dp3856
g62
(dp3857
sg71
g3843
sg64
(lp3858
g57
(g58
g59
NtRp3859
(dp3860
g62
(dp3861
g70
I3
ssg71
g3855
sg64
(lp3862
S'/'
asbasbasbag57
(g73
g59
NtRp3863
(dp3864
g62
(dp3865
sg71
g3739
sg64
(lp3866
g57
(g78
g59
NtRp3867
(dp3868
g62
(dp3869
g82
g83
ssg71
g3863
sg64
(lp3870
g410
asbag57
(g78
g59
NtRp3871
(dp3872
g62
(dp3873
g89
g90
ssg71
g3863
sg64
(lp3874
S':'
asbag57
(g78
g59
NtRp3875
(dp3876
g62
(dp3877
sg71
g3863
sg64
(lp3878
g57
(g58
g59
NtRp3879
(dp3880
g62
(dp3881
g70
I3
ssg71
g3875
sg64
(lp3882
S''
asbasbasbag57
(g73
g59
NtRp3883
(dp3884
g62
(dp3885
sg71
g3739
sg64
(lp3886
g57
(g78
g59
NtRp3887
(dp3888
g62
(dp3889
g82
g83
ssg71
g3883
sg64
(lp3890
g431
asbag57
(g78
g59
NtRp3891
(dp3892
g62
(dp3893
g89
g90
ssg71
g3883
sg64
(lp3894
S':'
asbag57
(g78
g59
NtRp3895
(dp3896
g62
(dp3897
sg71
g3883
sg64
(lp3898
g57
(g58
g59
NtRp3899
(dp3900
g62
(dp3901
g70
I3
ssg71
g3895
sg64
(lp3902
S''
asbasbasbasbasbasbasbasbasbasbasbag57
(g73
g59
NtRp3903
(dp3904
g62
(dp3905
sg71
g3669
sg64
(lp3906
g57
(g78
g59
NtRp3907
(dp3908
g62
(dp3909
g82
g83
ssg71
g3903
sg64
(lp3910
S'delimiters'
p3911
asbag57
(g78
g59
NtRp3912
(dp3913
g62
(dp3914
g89
g90
ssg71
g3903
sg64
(lp3915
S':'
asbag57
(g78
g59
NtRp3916
(dp3917
g62
(dp3918
sg71
g3903
sg64
(lp3919
g57
(g58
g59
NtRp3920
(dp3921
g62
(dp3922
g70
I5
ssg71
g3916
sg64
(lp3923
g57
(g66
g59
NtRp3924
(dp3925
g62
(dp3926
g70
I4
ssg71
Nsg64
(lp3927
g57
(g73
g59
NtRp3928
(dp3929
g62
(dp3930
sg71
g3924
sg64
(lp3931
g57
(g78
g59
NtRp3932
(dp3933
g62
(dp3934
sg71
g3928
sg64
(lp3935
g57
(g58
g59
NtRp3936
(dp3937
g62
(dp3938
g70
I4
ssg71
g3932
sg64
(lp3939
S'{{'
p3940
asbasbasbag57
(g73
g59
NtRp3941
(dp3942
g62
(dp3943
sg71
g3924
sg64
(lp3944
g57
(g78
g59
NtRp3945
(dp3946
g62
(dp3947
sg71
g3941
sg64
(lp3948
g57
(g58
g59
NtRp3949
(dp3950
g62
(dp3951
g70
I4
ssg71
g3945
sg64
(lp3952
S'}}'
p3953
asbasbasbasbasbasbasbag57
(g73
g59
NtRp3954
(dp3955
g62
(dp3956
sg71
g3669
sg64
(lp3957
g57
(g78
g59
NtRp3958
(dp3959
g62
(dp3960
g82
g83
ssg71
g3954
sg64
(lp3961
S'files'
p3962
asbag57
(g78
g59
NtRp3963
(dp3964
g62
(dp3965
g89
g90
ssg71
g3954
sg64
(lp3966
S':'
asbag57
(g78
g59
NtRp3967
(dp3968
g62
(dp3969
sg71
g3954
sg64
(lp3970
g57
(g58
g59
NtRp3971
(dp3972
g62
(dp3973
g70
I5
ssg71
g3967
sg64
(lp3974
g57
(g66
g59
NtRp3975
(dp3976
g62
(dp3977
g70
I4
ssg71
Nsg64
(lp3978
g57
(g73
g59
NtRp3979
(dp3980
g62
(dp3981
sg71
g3975
sg64
(lp3982
g57
(g78
g59
NtRp3983
(dp3984
g62
(dp3985
sg71
g3979
sg64
(lp3986
g57
(g58
g59
NtRp3987
(dp3988
g62
(dp3989
g70
I4
ssg71
g3983
sg64
(lp3990
S'/Just_Click_/static/js/jquery.js'
p3991
asbasbasbag57
(g73
g59
NtRp3992
(dp3993
g62
(dp3994
sg71
g3975
sg64
(lp3995
g57
(g78
g59
NtRp3996
(dp3997
g62
(dp3998
sg71
g3992
sg64
(lp3999
g57
(g58
g59
NtRp4000
(dp4001
g62
(dp4002
g70
I4
ssg71
g3996
sg64
(lp4003
S'/Just_Click_/static/css/calendar.css'
p4004
asbasbasbag57
(g73
g59
NtRp4005
(dp4006
g62
(dp4007
sg71
g3975
sg64
(lp4008
g57
(g78
g59
NtRp4009
(dp4010
g62
(dp4011
sg71
g4005
sg64
(lp4012
g57
(g58
g59
NtRp4013
(dp4014
g62
(dp4015
g70
I4
ssg71
g4009
sg64
(lp4016
S'/Just_Click_/static/js/calendar.js'
p4017
asbasbasbag57
(g73
g59
NtRp4018
(dp4019
g62
(dp4020
sg71
g3975
sg64
(lp4021
g57
(g78
g59
NtRp4022
(dp4023
g62
(dp4024
sg71
g4018
sg64
(lp4025
g57
(g58
g59
NtRp4026
(dp4027
g62
(dp4028
g70
I4
ssg71
g4022
sg64
(lp4029
S'/Just_Click_/static/js/web2py.js'
p4030
asbasbasbag57
(g73
g59
NtRp4031
(dp4032
g62
(dp4033
sg71
g3975
sg64
(lp4034
g57
(g78
g59
NtRp4035
(dp4036
g62
(dp4037
sg71
g4031
sg64
(lp4038
g57
(g58
g59
NtRp4039
(dp4040
g62
(dp4041
g70
I4
ssg71
g4035
sg64
(lp4042
S'/Just_Click_/static/css/skeleton.css'
p4043
asbasbasbag57
(g73
g59
NtRp4044
(dp4045
g62
(dp4046
sg71
g3975
sg64
(lp4047
g57
(g78
g59
NtRp4048
(dp4049
g62
(dp4050
sg71
g4044
sg64
(lp4051
g57
(g58
g59
NtRp4052
(dp4053
g62
(dp4054
g70
I4
ssg71
g4048
sg64
(lp4055
S'/Just_Click_/static/css/web2py.css'
p4056
asbasbasbag57
(g73
g59
NtRp4057
(dp4058
g62
(dp4059
sg71
g3975
sg64
(lp4060
g57
(g78
g59
NtRp4061
(dp4062
g62
(dp4063
sg71
g4057
sg64
(lp4064
g57
(g58
g59
NtRp4065
(dp4066
g62
(dp4067
g70
I4
ssg71
g4061
sg64
(lp4068
S'/Just_Click_/static/css/superfish.css'
p4069
asbasbasbag57
(g73
g59
NtRp4070
(dp4071
g62
(dp4072
sg71
g3975
sg64
(lp4073
g57
(g78
g59
NtRp4074
(dp4075
g62
(dp4076
sg71
g4070
sg64
(lp4077
g57
(g58
g59
NtRp4078
(dp4079
g62
(dp4080
g70
I4
ssg71
g4074
sg64
(lp4081
S'/Just_Click_/static/js/superfish.js'
p4082
asbasbasbasbasbasbasbag57
(g73
g59
NtRp4083
(dp4084
g62
(dp4085
sg71
g3669
sg64
(lp4086
g57
(g78
g59
NtRp4087
(dp4088
g62
(dp4089
g82
g83
ssg71
g4083
sg64
(lp4090
S'flash'
p4091
asbag57
(g78
g59
NtRp4092
(dp4093
g62
(dp4094
g89
g90
ssg71
g4083
sg64
(lp4095
S':'
asbag57
(g78
g59
NtRp4096
(dp4097
g62
(dp4098
sg71
g4083
sg64
(lp4099
g57
(g58
g59
NtRp4100
(dp4101
g62
(dp4102
g70
I5
ssg71
g4096
sg64
(lp4103
S''
asbasbasbag57
(g73
g59
NtRp4104
(dp4105
g62
(dp4106
sg71
g3669
sg64
(lp4107
g57
(g78
g59
NtRp4108
(dp4109
g62
(dp4110
g82
g83
ssg71
g4104
sg64
(lp4111
S'generic_patterns'
p4112
asbag57
(g78
g59
NtRp4113
(dp4114
g62
(dp4115
g89
g90
ssg71
g4104
sg64
(lp4116
S':'
asbag57
(g78
g59
NtRp4117
(dp4118
g62
(dp4119
sg71
g4104
sg64
(lp4120
g57
(g58
g59
NtRp4121
(dp4122
g62
(dp4123
g70
I5
ssg71
g4117
sg64
(lp4124
g57
(g66
g59
NtRp4125
(dp4126
g62
(dp4127
g70
I4
ssg71
Nsg64
(lp4128
sbasbasbasbag57
(g73
g59
NtRp4129
(dp4130
g62
(dp4131
sg71
g3669
sg64
(lp4132
g57
(g78
g59
NtRp4133
(dp4134
g62
(dp4135
g82
g83
ssg71
g4129
sg64
(lp4136
S'headers'
p4137
asbag57
(g78
g59
NtRp4138
(dp4139
g62
(dp4140
g89
g90
ssg71
g4129
sg64
(lp4141
S':'
asbag57
(g78
g59
NtRp4142
(dp4143
g62
(dp4144
sg71
g4129
sg64
(lp4145
g57
(g58
g59
NtRp4146
(dp4147
g62
(dp4148
g70
I5
ssg71
g4142
sg64
(lp4149
g57
(g66
g59
NtRp4150
(dp4151
g62
(dp4152
g70
I4
ssg71
Nsg64
(lp4153
g57
(g73
g59
NtRp4154
(dp4155
g62
(dp4156
sg71
g4150
sg64
(lp4157
g57
(g78
g59
NtRp4158
(dp4159
g62
(dp4160
g82
g83
ssg71
g4154
sg64
(lp4161
S'Cache-Control'
p4162
asbag57
(g78
g59
NtRp4163
(dp4164
g62
(dp4165
g89
g90
ssg71
g4154
sg64
(lp4166
S':'
asbag57
(g78
g59
NtRp4167
(dp4168
g62
(dp4169
sg71
g4154
sg64
(lp4170
g57
(g58
g59
NtRp4171
(dp4172
g62
(dp4173
g70
I4
ssg71
g4167
sg64
(lp4174
S'no-store, no-cache, must-revalidate, post-check=0, pre-check=0'
p4175
asbasbasbag57
(g73
g59
NtRp4176
(dp4177
g62
(dp4178
sg71
g4150
sg64
(lp4179
g57
(g78
g59
NtRp4180
(dp4181
g62
(dp4182
g82
g83
ssg71
g4176
sg64
(lp4183
S'Content-Type'
p4184
asbag57
(g78
g59
NtRp4185
(dp4186
g62
(dp4187
g89
g90
ssg71
g4176
sg64
(lp4188
S':'
asbag57
(g78
g59
NtRp4189
(dp4190
g62
(dp4191
sg71
g4176
sg64
(lp4192
g57
(g58
g59
NtRp4193
(dp4194
g62
(dp4195
g70
I4
ssg71
g4189
sg64
(lp4196
S'text/html; charset=utf-8'
p4197
asbasbasbag57
(g73
g59
NtRp4198
(dp4199
g62
(dp4200
sg71
g4150
sg64
(lp4201
g57
(g78
g59
NtRp4202
(dp4203
g62
(dp4204
g82
g83
ssg71
g4198
sg64
(lp4205
S'Expires'
p4206
asbag57
(g78
g59
NtRp4207
(dp4208
g62
(dp4209
g89
g90
ssg71
g4198
sg64
(lp4210
S':'
asbag57
(g78
g59
NtRp4211
(dp4212
g62
(dp4213
sg71
g4198
sg64
(lp4214
g57
(g58
g59
NtRp4215
(dp4216
g62
(dp4217
g70
I4
ssg71
g4211
sg64
(lp4218
S'Tue, 11 Sep 2012 12:20:16 GMT'
p4219
asbasbasbag57
(g73
g59
NtRp4220
(dp4221
g62
(dp4222
sg71
g4150
sg64
(lp4223
g57
(g78
g59
NtRp4224
(dp4225
g62
(dp4226
g82
g83
ssg71
g4220
sg64
(lp4227
S'Pragma'
p4228
asbag57
(g78
g59
NtRp4229
(dp4230
g62
(dp4231
g89
g90
ssg71
g4220
sg64
(lp4232
S':'
asbag57
(g78
g59
NtRp4233
(dp4234
g62
(dp4235
sg71
g4220
sg64
(lp4236
g57
(g58
g59
NtRp4237
(dp4238
g62
(dp4239
g70
I4
ssg71
g4233
sg64
(lp4240
S'no-cache'
p4241
asbasbasbag57
(g73
g59
NtRp4242
(dp4243
g62
(dp4244
sg71
g4150
sg64
(lp4245
g57
(g78
g59
NtRp4246
(dp4247
g62
(dp4248
g82
g83
ssg71
g4242
sg64
(lp4249
S'X-Powered-By'
p4250
asbag57
(g78
g59
NtRp4251
(dp4252
g62
(dp4253
g89
g90
ssg71
g4242
sg64
(lp4254
S':'
asbag57
(g78
g59
NtRp4255
(dp4256
g62
(dp4257
sg71
g4242
sg64
(lp4258
g57
(g58
g59
NtRp4259
(dp4260
g62
(dp4261
g70
I4
ssg71
g4255
sg64
(lp4262
S'web2py'
p4263
asbasbasbasbasbasbasbag57
(g73
g59
NtRp4264
(dp4265
g62
(dp4266
sg71
g3669
sg64
(lp4267
g57
(g78
g59
NtRp4268
(dp4269
g62
(dp4270
g82
g83
ssg71
g4264
sg64
(lp4271
S'menu'
p4272
asbag57
(g78
g59
NtRp4273
(dp4274
g62
(dp4275
g89
g90
ssg71
g4264
sg64
(lp4276
S':'
asbag57
(g78
g59
NtRp4277
(dp4278
g62
(dp4279
sg71
g4264
sg64
(lp4280
g57
(g58
g59
NtRp4281
(dp4282
g62
(dp4283
g70
I5
ssg71
g4277
sg64
(lp4284
g57
(g66
g59
NtRp4285
(dp4286
g62
(dp4287
g70
I4
ssg71
Nsg64
(lp4288
g57
(g73
g59
NtRp4289
(dp4290
g62
(dp4291
sg71
g4285
sg64
(lp4292
g57
(g78
g59
NtRp4293
(dp4294
g62
(dp4295
sg71
g4289
sg64
(lp4296
g57
(g58
g59
NtRp4297
(dp4298
g62
(dp4299
g70
I4
ssg71
g4293
sg64
(lp4300
g57
(g66
g59
NtRp4301
(dp4302
g62
(dp4303
g70
I3
ssg71
Nsg64
(lp4304
g57
(g73
g59
NtRp4305
(dp4306
g62
(dp4307
sg71
g4301
sg64
(lp4308
g57
(g78
g59
NtRp4309
(dp4310
g62
(dp4311
sg71
g4305
sg64
(lp4312
g57
(g58
g59
NtRp4313
(dp4314
g62
(dp4315
g70
I3
ssg71
g4309
sg64
(lp4316
cgluon.languages
lazyT_unpickle
p4317
(S't\x04\x00\x00\x00Home'
tRp4318
asbasbasbag57
(g73
g59
NtRp4319
(dp4320
g62
(dp4321
sg71
g4301
sg64
(lp4322
g57
(g78
g59
NtRp4323
(dp4324
g62
(dp4325
sg71
g4319
sg64
(lp4326
g57
(g58
g59
NtRp4327
(dp4328
g62
(dp4329
g70
I3
ssg71
g4323
sg64
(lp4330
g100
asbasbasbag57
(g73
g59
NtRp4331
(dp4332
g62
(dp4333
sg71
g4301
sg64
(lp4334
g57
(g78
g59
NtRp4335
(dp4336
g62
(dp4337
sg71
g4331
sg64
(lp4338
g57
(g58
g59
NtRp4339
(dp4340
g62
(dp4341
g70
I3
ssg71
g4335
sg64
(lp4342
S'/Just_Click_/default/index'
p4343
asbasbasbag57
(g73
g59
NtRp4344
(dp4345
g62
(dp4346
sg71
g4301
sg64
(lp4347
g57
(g78
g59
NtRp4348
(dp4349
g62
(dp4350
sg71
g4344
sg64
(lp4351
g57
(g58
g59
NtRp4352
(dp4353
g62
(dp4354
g70
I3
ssg71
g4348
sg64
(lp4355
g57
(g66
g59
NtRp4356
(dp4357
g62
(dp4358
g70
I2
ssg71
Nsg64
(lp4359
sbasbasbasbasbasbasbasbag57
(g73
g59
NtRp4360
(dp4361
g62
(dp4362
sg71
g4285
sg64
(lp4363
g57
(g78
g59
NtRp4364
(dp4365
g62
(dp4366
sg71
g4360
sg64
(lp4367
g57
(g58
g59
NtRp4368
(dp4369
g62
(dp4370
g70
I4
ssg71
g4364
sg64
(lp4371
g57
(g66
g59
NtRp4372
(dp4373
g62
(dp4374
g70
I3
ssg71
Nsg64
(lp4375
g57
(g73
g59
NtRp4376
(dp4377
g62
(dp4378
sg71
g4372
sg64
(lp4379
g57
(g78
g59
NtRp4380
(dp4381
g62
(dp4382
sg71
g4376
sg64
(lp4383
g57
(g58
g59
NtRp4384
(dp4385
g62
(dp4386
g70
I3
ssg71
g4380
sg64
(lp4387
g57
(cgluon.html
SPAN
p4388
g59
NtRp4389
(dp4390
g62
(dp4391
g82
S'color:yellow'
p4392
ssg71
g57
(cgluon.html
A
p4393
g59
NtRp4394
(dp4395
g62
(dp4396
S'_onclick'
p4397
S'javascript:void(0);return false;'
p4398
sS'_href'
p4399
S'#'
ssg71
g57
(cgluon.html
LI
p4400
g59
NtRp4401
(dp4402
g62
(dp4403
S'_class'
p4404
S'web2py-menu-expand'
p4405
ssg71
g57
(cgluon.html
UL
p4406
g59
NtRp4407
(dp4408
g62
(dp4409
S'mobile'
p4410
I00
sS'li_class'
p4411
g4405
sg4404
S'sf-menu'
p4412
sS'ul_class'
p4413
S'web2py-menu-vertical'
p4414
sS'li_active'
p4415
S'web2py-menu-active'
p4416
ssg71
Nsg64
(lp4417
g57
(g4400
g59
NtRp4418
(dp4419
g62
(dp4420
sg71
g4407
sg64
(lp4421
g57
(g4393
g59
NtRp4422
(dp4423
g62
(dp4424
g4399
g4343
ssg71
g4418
sg64
(lp4425
g4318
asbasbag4401
asbsg64
(lp4426
g4394
ag57
(g4406
g59
NtRp4427
(dp4428
g62
(dp4429
g4404
g4414
ssg71
g4401
sg64
(lp4430
g57
(g4400
g59
NtRp4431
(dp4432
g62
(dp4433
sg71
g4427
sg64
(lp4434
g57
(g4393
g59
NtRp4435
(dp4436
g62
(dp4437
g4399
S'/admin/default/site'
p4438
ssg71
g4431
sg64
(lp4439
g4317
(S's\x08\x00\x00\x00My Sites'
tRp4440
asbasbag57
(g4400
g59
NtRp4441
(dp4442
g62
(dp4443
g4404
g4405
ssg71
g4427
sg64
(lp4444
g57
(g4393
g59
NtRp4445
(dp4446
g62
(dp4447
g4399
S'/admin/default/design/Just_Click_'
p4448
ssg71
g4441
sg64
(lp4449
g4317
(S's\x08\x00\x00\x00This App'
tRp4450
asbag57
(g4406
g59
NtRp4451
(dp4452
g62
(dp4453
g4404
g4414
ssg71
g4441
sg64
(lp4454
g57
(g4400
g59
NtRp4455
(dp4456
g62
(dp4457
sg71
g4451
sg64
(lp4458
g57
(g4393
g59
NtRp4459
(dp4460
g62
(dp4461
g4399
S'/admin/default/edit/Just_Click_/controllers/default.py'
p4462
ssg71
g4455
sg64
(lp4463
g4317
(S't\n\x00\x00\x00Controller'
tRp4464
asbasbag57
(g4400
g59
NtRp4465
(dp4466
g62
(dp4467
sg71
g4451
sg64
(lp4468
g57
(g4393
g59
NtRp4469
(dp4470
g62
(dp4471
g4399
S'/admin/default/edit/Just_Click_/views/default/show.html'
p4472
ssg71
g4465
sg64
(lp4473
g4317
(S't\x04\x00\x00\x00View'
tRp4474
asbasbag57
(g4400
g59
NtRp4475
(dp4476
g62
(dp4477
sg71
g4451
sg64
(lp4478
g57
(g4393
g59
NtRp4479
(dp4480
g62
(dp4481
g4399
S'/admin/default/edit/Just_Click_/views/layout.html'
p4482
ssg71
g4475
sg64
(lp4483
g4317
(S't\x06\x00\x00\x00Layout'
tRp4484
asbasbag57
(g4400
g59
NtRp4485
(dp4486
g62
(dp4487
sg71
g4451
sg64
(lp4488
g57
(g4393
g59
NtRp4489
(dp4490
g62
(dp4491
g4399
S'/admin/default/edit/Just_Click_/static/css/web2py.css'
p4492
ssg71
g4485
sg64
(lp4493
g4317
(S't\n\x00\x00\x00Stylesheet'
tRp4494
asbasbag57
(g4400
g59
NtRp4495
(dp4496
g62
(dp4497
sg71
g4451
sg64
(lp4498
g57
(g4393
g59
NtRp4499
(dp4500
g62
(dp4501
g4399
S'/admin/default/edit/Just_Click_/models/db.py'
p4502
ssg71
g4495
sg64
(lp4503
g4317
(S's\x08\x00\x00\x00DB Model'
tRp4504
asbasbag57
(g4400
g59
NtRp4505
(dp4506
g62
(dp4507
sg71
g4451
sg64
(lp4508
g57
(g4393
g59
NtRp4509
(dp4510
g62
(dp4511
g4399
S'/admin/default/edit/Just_Click_/models/menu.py'
p4512
ssg71
g4505
sg64
(lp4513
g4317
(S's\n\x00\x00\x00Menu Model'
tRp4514
asbasbag57
(g4400
g59
NtRp4515
(dp4516
g62
(dp4517
sg71
g4451
sg64
(lp4518
g57
(g4393
g59
NtRp4519
(dp4520
g62
(dp4521
g4399
S'/Just_Click_/appadmin/index'
p4522
ssg71
g4515
sg64
(lp4523
g4317
(S't\x08\x00\x00\x00Database'
tRp4524
asbasbag57
(g4400
g59
NtRp4525
(dp4526
g62
(dp4527
sg71
g4451
sg64
(lp4528
g57
(g4393
g59
NtRp4529
(dp4530
g62
(dp4531
g4399
S'/admin/default/errors/Just_Click_'
p4532
ssg71
g4525
sg64
(lp4533
g4317
(S't\x06\x00\x00\x00Errors'
tRp4534
asbasbag57
(g4400
g59
NtRp4535
(dp4536
g62
(dp4537
sg71
g4451
sg64
(lp4538
g57
(g4393
g59
NtRp4539
(dp4540
g62
(dp4541
g4399
S'/admin/default/about/Just_Click_'
p4542
ssg71
g4535
sg64
(lp4543
g4317
(S't\x05\x00\x00\x00About'
tRp4544
asbasbasbasbag57
(g4400
g59
NtRp4545
(dp4546
g62
(dp4547
g4404
g4405
ssg71
g4427
sg64
(lp4548
g57
(g4393
g59
NtRp4549
(dp4550
g62
(dp4551
g4399
S'http://www.web2py.com'
p4552
ssg71
g4545
sg64
(lp4553
S'web2py.com'
p4554
asbag57
(g4406
g59
NtRp4555
(dp4556
g62
(dp4557
g4404
g4414
ssg71
g4545
sg64
(lp4558
g57
(g4400
g59
NtRp4559
(dp4560
g62
(dp4561
sg71
g4555
sg64
(lp4562
g57
(g4393
g59
NtRp4563
(dp4564
g62
(dp4565
g4399
S'http://www.web2py.com/examples/default/download'
p4566
ssg71
g4559
sg64
(lp4567
g4317
(S't\x08\x00\x00\x00Download'
tRp4568
asbasbag57
(g4400
g59
NtRp4569
(dp4570
g62
(dp4571
sg71
g4555
sg64
(lp4572
g57
(g4393
g59
NtRp4573
(dp4574
g62
(dp4575
g4399
S'http://www.web2py.com/examples/default/support'
p4576
ssg71
g4569
sg64
(lp4577
g4317
(S't\x07\x00\x00\x00Support'
tRp4578
asbasbag57
(g4400
g59
NtRp4579
(dp4580
g62
(dp4581
sg71
g4555
sg64
(lp4582
g57
(g4393
g59
NtRp4583
(dp4584
g62
(dp4585
g4399
S'http://web2py.com/demo_admin'
p4586
ssg71
g4579
sg64
(lp4587
g4317
(S't\x04\x00\x00\x00Demo'
tRp4588
asbasbag57
(g4400
g59
NtRp4589
(dp4590
g62
(dp4591
sg71
g4555
sg64
(lp4592
g57
(g4393
g59
NtRp4593
(dp4594
g62
(dp4595
g4399
S'http://web2py.com/examples/default/examples'
p4596
ssg71
g4589
sg64
(lp4597
g4317
(S's\x0e\x00\x00\x00Quick Examples'
tRp4598
asbasbag57
(g4400
g59
NtRp4599
(dp4600
g62
(dp4601
sg71
g4555
sg64
(lp4602
g57
(g4393
g59
NtRp4603
(dp4604
g62
(dp4605
g4399
S'http://web2py.com/AlterEgo'
p4606
ssg71
g4599
sg64
(lp4607
g4317
(S't\x03\x00\x00\x00FAQ'
tRp4608
asbasbag57
(g4400
g59
NtRp4609
(dp4610
g62
(dp4611
sg71
g4555
sg64
(lp4612
g57
(g4393
g59
NtRp4613
(dp4614
g62
(dp4615
g4399
S'http://www.web2py.com/examples/default/videos/'
p4616
ssg71
g4609
sg64
(lp4617
g4317
(S't\x06\x00\x00\x00Videos'
tRp4618
asbasbag57
(g4400
g59
NtRp4619
(dp4620
g62
(dp4621
sg71
g4555
sg64
(lp4622
g57
(g4393
g59
NtRp4623
(dp4624
g62
(dp4625
g4399
S'http://web2py.com/appliances'
p4626
ssg71
g4619
sg64
(lp4627
g4317
(S's\x11\x00\x00\x00Free Applications'
tRp4628
asbasbag57
(g4400
g59
NtRp4629
(dp4630
g62
(dp4631
sg71
g4555
sg64
(lp4632
g57
(g4393
g59
NtRp4633
(dp4634
g62
(dp4635
g4399
S'http://web2py.com/plugins'
p4636
ssg71
g4629
sg64
(lp4637
g4317
(S't\x07\x00\x00\x00Plugins'
tRp4638
asbasbag57
(g4400
g59
NtRp4639
(dp4640
g62
(dp4641
sg71
g4555
sg64
(lp4642
g57
(g4393
g59
NtRp4643
(dp4644
g62
(dp4645
g4399
S'http://web2py.com/layouts'
p4646
ssg71
g4639
sg64
(lp4647
g4317
(S't\x07\x00\x00\x00Layouts'
tRp4648
asbasbag57
(g4400
g59
NtRp4649
(dp4650
g62
(dp4651
sg71
g4555
sg64
(lp4652
g57
(g4393
g59
NtRp4653
(dp4654
g62
(dp4655
g4399
S'http://web2pyslices.com/'
p4656
ssg71
g4649
sg64
(lp4657
g4317
(S't\x07\x00\x00\x00Recipes'
tRp4658
asbasbag57
(g4400
g59
NtRp4659
(dp4660
g62
(dp4661
sg71
g4555
sg64
(lp4662
g57
(g4393
g59
NtRp4663
(dp4664
g62
(dp4665
g4399
S'http://web2py.com/semantic'
p4666
ssg71
g4659
sg64
(lp4667
g4317
(S't\x08\x00\x00\x00Semantic'
tRp4668
asbasbasbasbag57
(g4400
g59
NtRp4669
(dp4670
g62
(dp4671
g4404
g4405
ssg71
g4427
sg64
(lp4672
g57
(g4393
g59
NtRp4673
(dp4674
g62
(dp4675
g4399
S'http://www.web2py.com/book'
p4676
ssg71
g4669
sg64
(lp4677
g4317
(S't\r\x00\x00\x00Documentation'
tRp4678
asbag57
(g4406
g59
NtRp4679
(dp4680
g62
(dp4681
g4404
g4414
ssg71
g4669
sg64
(lp4682
g57
(g4400
g59
NtRp4683
(dp4684
g62
(dp4685
sg71
g4679
sg64
(lp4686
g57
(g4393
g59
NtRp4687
(dp4688
g62
(dp4689
g4399
S'http://www.web2py.com/book/default/chapter/00'
p4690
ssg71
g4683
sg64
(lp4691
g4317
(S't\x07\x00\x00\x00Preface'
tRp4692
asbasbag57
(g4400
g59
NtRp4693
(dp4694
g62
(dp4695
sg71
g4679
sg64
(lp4696
g57
(g4393
g59
NtRp4697
(dp4698
g62
(dp4699
g4399
S'http://www.web2py.com/book/default/chapter/01'
p4700
ssg71
g4693
sg64
(lp4701
g4317
(S't\x0c\x00\x00\x00Introduction'
tRp4702
asbasbag57
(g4400
g59
NtRp4703
(dp4704
g62
(dp4705
sg71
g4679
sg64
(lp4706
g57
(g4393
g59
NtRp4707
(dp4708
g62
(dp4709
g4399
S'http://www.web2py.com/book/default/chapter/02'
p4710
ssg71
g4703
sg64
(lp4711
g4317
(S't\x06\x00\x00\x00Python'
tRp4712
asbasbag57
(g4400
g59
NtRp4713
(dp4714
g62
(dp4715
sg71
g4679
sg64
(lp4716
g57
(g4393
g59
NtRp4717
(dp4718
g62
(dp4719
g4399
S'http://www.web2py.com/book/default/chapter/03'
p4720
ssg71
g4713
sg64
(lp4721
g4317
(S't\x08\x00\x00\x00Overview'
tRp4722
asbasbag57
(g4400
g59
NtRp4723
(dp4724
g62
(dp4725
sg71
g4679
sg64
(lp4726
g57
(g4393
g59
NtRp4727
(dp4728
g62
(dp4729
g4399
S'http://www.web2py.com/book/default/chapter/04'
p4730
ssg71
g4723
sg64
(lp4731
g4317
(S's\x08\x00\x00\x00The Core'
tRp4732
asbasbag57
(g4400
g59
NtRp4733
(dp4734
g62
(dp4735
sg71
g4679
sg64
(lp4736
g57
(g4393
g59
NtRp4737
(dp4738
g62
(dp4739
g4399
S'http://www.web2py.com/book/default/chapter/05'
p4740
ssg71
g4733
sg64
(lp4741
g4317
(S's\t\x00\x00\x00The Views'
tRp4742
asbasbag57
(g4400
g59
NtRp4743
(dp4744
g62
(dp4745
sg71
g4679
sg64
(lp4746
g57
(g4393
g59
NtRp4747
(dp4748
g62
(dp4749
g4399
S'http://www.web2py.com/book/default/chapter/06'
p4750
ssg71
g4743
sg64
(lp4751
g4317
(S't\x08\x00\x00\x00Database'
tRp4752
asbasbag57
(g4400
g59
NtRp4753
(dp4754
g62
(dp4755
sg71
g4679
sg64
(lp4756
g57
(g4393
g59
NtRp4757
(dp4758
g62
(dp4759
g4399
S'http://www.web2py.com/book/default/chapter/07'
p4760
ssg71
g4753
sg64
(lp4761
g4317
(S's\x14\x00\x00\x00Forms and Validators'
tRp4762
asbasbag57
(g4400
g59
NtRp4763
(dp4764
g62
(dp4765
sg71
g4679
sg64
(lp4766
g57
(g4393
g59
NtRp4767
(dp4768
g62
(dp4769
g4399
S'http://www.web2py.com/book/default/chapter/08'
p4770
ssg71
g4763
sg64
(lp4771
g4317
(S's\r\x00\x00\x00Email and SMS'
tRp4772
asbasbag57
(g4400
g59
NtRp4773
(dp4774
g62
(dp4775
sg71
g4679
sg64
(lp4776
g57
(g4393
g59
NtRp4777
(dp4778
g62
(dp4779
g4399
S'http://www.web2py.com/book/default/chapter/09'
p4780
ssg71
g4773
sg64
(lp4781
g4317
(S's\x0e\x00\x00\x00Access Control'
tRp4782
asbasbag57
(g4400
g59
NtRp4783
(dp4784
g62
(dp4785
sg71
g4679
sg64
(lp4786
g57
(g4393
g59
NtRp4787
(dp4788
g62
(dp4789
g4399
S'http://www.web2py.com/book/default/chapter/10'
p4790
ssg71
g4783
sg64
(lp4791
g4317
(S't\x08\x00\x00\x00Services'
tRp4792
asbasbag57
(g4400
g59
NtRp4793
(dp4794
g62
(dp4795
sg71
g4679
sg64
(lp4796
g57
(g4393
g59
NtRp4797
(dp4798
g62
(dp4799
g4399
S'http://www.web2py.com/book/default/chapter/11'
p4800
ssg71
g4793
sg64
(lp4801
g4317
(S's\x0c\x00\x00\x00Ajax Recipes'
tRp4802
asbasbag57
(g4400
g59
NtRp4803
(dp4804
g62
(dp4805
sg71
g4679
sg64
(lp4806
g57
(g4393
g59
NtRp4807
(dp4808
g62
(dp4809
g4399
S'http://www.web2py.com/book/default/chapter/12'
p4810
ssg71
g4803
sg64
(lp4811
g4317
(S's\x16\x00\x00\x00Components and Plugins'
tRp4812
asbasbag57
(g4400
g59
NtRp4813
(dp4814
g62
(dp4815
sg71
g4679
sg64
(lp4816
g57
(g4393
g59
NtRp4817
(dp4818
g62
(dp4819
g4399
S'http://www.web2py.com/book/default/chapter/13'
p4820
ssg71
g4813
sg64
(lp4821
g4317
(S's\x12\x00\x00\x00Deployment Recipes'
tRp4822
asbasbag57
(g4400
g59
NtRp4823
(dp4824
g62
(dp4825
sg71
g4679
sg64
(lp4826
g57
(g4393
g59
NtRp4827
(dp4828
g62
(dp4829
g4399
S'http://www.web2py.com/book/default/chapter/14'
p4830
ssg71
g4823
sg64
(lp4831
g4317
(S's\r\x00\x00\x00Other Recipes'
tRp4832
asbasbag57
(g4400
g59
NtRp4833
(dp4834
g62
(dp4835
sg71
g4679
sg64
(lp4836
g57
(g4393
g59
NtRp4837
(dp4838
g62
(dp4839
g4399
S'http://stores.lulu.com/web2py'
p4840
ssg71
g4833
sg64
(lp4841
g4317
(S's\r\x00\x00\x00Buy this book'
tRp4842
asbasbasbasbag57
(g4400
g59
NtRp4843
(dp4844
g62
(dp4845
g4404
g4405
ssg71
g4427
sg64
(lp4846
g57
(g4393
g59
NtRp4847
(dp4848
g62
(dp4849
g4397
g4398
sg4399
S'#'
ssg71
g4843
sg64
(lp4850
g4317
(S't\t\x00\x00\x00Community'
tRp4851
asbag57
(g4406
g59
NtRp4852
(dp4853
g62
(dp4854
g4404
g4414
ssg71
g4843
sg64
(lp4855
g57
(g4400
g59
NtRp4856
(dp4857
g62
(dp4858
sg71
g4852
sg64
(lp4859
g57
(g4393
g59
NtRp4860
(dp4861
g62
(dp4862
g4399
S'http://www.web2py.com/examples/default/usergroups'
p4863
ssg71
g4856
sg64
(lp4864
g4317
(S't\x06\x00\x00\x00Groups'
tRp4865
asbasbag57
(g4400
g59
NtRp4866
(dp4867
g62
(dp4868
sg71
g4852
sg64
(lp4869
g57
(g4393
g59
NtRp4870
(dp4871
g62
(dp4872
g4399
S'http://twitter.com/web2py'
p4873
ssg71
g4866
sg64
(lp4874
g4317
(S't\x07\x00\x00\x00Twitter'
tRp4875
asbasbag57
(g4400
g59
NtRp4876
(dp4877
g62
(dp4878
sg71
g4852
sg64
(lp4879
g57
(g4393
g59
NtRp4880
(dp4881
g62
(dp4882
g4399
S'http://webchat.freenode.net/?channels=web2py'
p4883
ssg71
g4876
sg64
(lp4884
g4317
(S's\t\x00\x00\x00Live Chat'
tRp4885
asbasbasbasbag57
(g4400
g59
NtRp4886
(dp4887
g62
(dp4888
g4404
g4405
ssg71
g4427
sg64
(lp4889
g57
(g4393
g59
NtRp4890
(dp4891
g62
(dp4892
g4397
g4398
sg4399
S'#'
ssg71
g4886
sg64
(lp4893
g4317
(S't\x07\x00\x00\x00Plugins'
tRp4894
asbag57
(g4406
g59
NtRp4895
(dp4896
g62
(dp4897
g4404
g4414
ssg71
g4886
sg64
(lp4898
g57
(g4400
g59
NtRp4899
(dp4900
g62
(dp4901
sg71
g4895
sg64
(lp4902
g57
(g4393
g59
NtRp4903
(dp4904
g62
(dp4905
g4399
S'http://web2py.com/examples/default/download'
p4906
ssg71
g4899
sg64
(lp4907
S'plugin_wiki'
p4908
asbasbag57
(g4400
g59
NtRp4909
(dp4910
g62
(dp4911
sg71
g4895
sg64
(lp4912
g57
(g4393
g59
NtRp4913
(dp4914
g62
(dp4915
g4399
g4636
ssg71
g4909
sg64
(lp4916
g4317
(S's\r\x00\x00\x00Other Plugins'
tRp4917
asbasbag57
(g4400
g59
NtRp4918
(dp4919
g62
(dp4920
sg71
g4895
sg64
(lp4921
g57
(g4393
g59
NtRp4922
(dp4923
g62
(dp4924
g4399
g4646
ssg71
g4918
sg64
(lp4925
g4317
(S's\x0e\x00\x00\x00Layout Plugins'
tRp4926
asbasbasbasbasbasbsg64
(lp4927
g4389
asbsg64
(lp4928
g4263
asbasbasbasbag57
(g73
g59
NtRp4929
(dp4930
g62
(dp4931
sg71
g4372
sg64
(lp4932
g57
(g78
g59
NtRp4933
(dp4934
g62
(dp4935
sg71
g4929
sg64
(lp4936
g57
(g58
g59
NtRp4937
(dp4938
g62
(dp4939
g70
I3
ssg71
g4933
sg64
(lp4940
g100
asbasbasbag57
(g73
g59
NtRp4941
(dp4942
g62
(dp4943
sg71
g4372
sg64
(lp4944
g57
(g78
g59
NtRp4945
(dp4946
g62
(dp4947
sg71
g4941
sg64
(lp4948
g57
(g58
g59
NtRp4949
(dp4950
g62
(dp4951
g70
I3
ssg71
g4945
sg64
(lp4952
S'None'
p4953
asbasbasbag57
(g73
g59
NtRp4954
(dp4955
g62
(dp4956
sg71
g4372
sg64
(lp4957
g57
(g78
g59
NtRp4958
(dp4959
g62
(dp4960
sg71
g4954
sg64
(lp4961
g57
(g58
g59
NtRp4962
(dp4963
g62
(dp4964
g70
I3
ssg71
g4958
sg64
(lp4965
g57
(g66
g59
NtRp4966
(dp4967
g62
(dp4968
g70
I2
ssg71
Nsg64
(lp4969
g57
(g73
g59
NtRp4970
(dp4971
g62
(dp4972
sg71
g4966
sg64
(lp4973
g57
(g78
g59
NtRp4974
(dp4975
g62
(dp4976
sg71
g4970
sg64
(lp4977
g57
(g58
g59
NtRp4978
(dp4979
g62
(dp4980
g70
I2
ssg71
g4974
sg64
(lp4981
g57
(g66
g59
NtRp4982
(dp4983
g62
(dp4984
g70
I1
ssg71
Nsg64
(lp4985
g57
(g73
g59
NtRp4986
(dp4987
g62
(dp4988
sg71
g4982
sg64
(lp4989
g57
(g78
g59
NtRp4990
(dp4991
g62
(dp4992
sg71
g4986
sg64
(lp4993
g57
(g58
g59
NtRp4994
(dp4995
g62
(dp4996
g70
I1
ssg71
g4990
sg64
(lp4997
g4440
asbasbasbag57
(g73
g59
NtRp4998
(dp4999
g62
(dp5000
sg71
g4982
sg64
(lp5001
g57
(g78
g59
NtRp5002
(dp5003
g62
(dp5004
sg71
g4998
sg64
(lp5005
g57
(g58
g59
NtRp5006
(dp5007
g62
(dp5008
g70
I1
ssg71
g5002
sg64
(lp5009
I00
asbasbasbag57
(g73
g59
NtRp5010
(dp5011
g62
(dp5012
sg71
g4982
sg64
(lp5013
g57
(g78
g59
NtRp5014
(dp5015
g62
(dp5016
sg71
g5010
sg64
(lp5017
g57
(g58
g59
NtRp5018
(dp5019
g62
(dp5020
g70
I1
ssg71
g5014
sg64
(lp5021
g4438
asbasbasbasbasbasbasbag57
(g73
g59
NtRp5022
(dp5023
g62
(dp5024
sg71
g4966
sg64
(lp5025
g57
(g78
g59
NtRp5026
(dp5027
g62
(dp5028
sg71
g5022
sg64
(lp5029
g57
(g58
g59
NtRp5030
(dp5031
g62
(dp5032
g70
I2
ssg71
g5026
sg64
(lp5033
g57
(g66
g59
NtRp5034
(dp5035
g62
(dp5036
g70
I1
ssg71
Nsg64
(lp5037
g57
(g73
g59
NtRp5038
(dp5039
g62
(dp5040
sg71
g5034
sg64
(lp5041
g57
(g78
g59
NtRp5042
(dp5043
g62
(dp5044
sg71
g5038
sg64
(lp5045
g57
(g58
g59
NtRp5046
(dp5047
g62
(dp5048
g70
I1
ssg71
g5042
sg64
(lp5049
g4450
asbasbasbag57
(g73
g59
NtRp5050
(dp5051
g62
(dp5052
sg71
g5034
sg64
(lp5053
g57
(g78
g59
NtRp5054
(dp5055
g62
(dp5056
sg71
g5050
sg64
(lp5057
g57
(g58
g59
NtRp5058
(dp5059
g62
(dp5060
g70
I1
ssg71
g5054
sg64
(lp5061
I00
asbasbasbag57
(g73
g59
NtRp5062
(dp5063
g62
(dp5064
sg71
g5034
sg64
(lp5065
g57
(g78
g59
NtRp5066
(dp5067
g62
(dp5068
sg71
g5062
sg64
(lp5069
g57
(g58
g59
NtRp5070
(dp5071
g62
(dp5072
g70
I1
ssg71
g5066
sg64
(lp5073
g4448
asbasbasbag57
(g73
g59
NtRp5074
(dp5075
g62
(dp5076
sg71
g5034
sg64
(lp5077
g57
(g78
g59
NtRp5078
(dp5079
g62
(dp5080
sg71
g5074
sg64
(lp5081
g57
(g58
g59
NtRp5082
(dp5083
g62
(dp5084
g70
I1
ssg71
g5078
sg64
(lp5085
(lp5086
(g4464
I00
g4462
tp5087
a(g4474
I00
g4472
tp5088
a(g4484
I00
g4482
tp5089
a(g4494
I00
g4492
tp5090
a(g4504
I00
g4502
tp5091
a(g4514
I00
g4512
tp5092
a(g4524
I00
g4522
tp5093
a(g4534
I00
g4532
tp5094
a(g4544
I00
g4542
tp5095
aasbasbasbasbasbasbasbag57
(g73
g59
NtRp5096
(dp5097
g62
(dp5098
sg71
g4966
sg64
(lp5099
g57
(g78
g59
NtRp5100
(dp5101
g62
(dp5102
sg71
g5096
sg64
(lp5103
g57
(g58
g59
NtRp5104
(dp5105
g62
(dp5106
g70
I2
ssg71
g5100
sg64
(lp5107
g57
(g66
g59
NtRp5108
(dp5109
g62
(dp5110
g70
I1
ssg71
Nsg64
(lp5111
g57
(g73
g59
NtRp5112
(dp5113
g62
(dp5114
sg71
g5108
sg64
(lp5115
g57
(g78
g59
NtRp5116
(dp5117
g62
(dp5118
sg71
g5112
sg64
(lp5119
g57
(g58
g59
NtRp5120
(dp5121
g62
(dp5122
g70
I1
ssg71
g5116
sg64
(lp5123
g4554
asbasbasbag57
(g73
g59
NtRp5124
(dp5125
g62
(dp5126
sg71
g5108
sg64
(lp5127
g57
(g78
g59
NtRp5128
(dp5129
g62
(dp5130
sg71
g5124
sg64
(lp5131
g57
(g58
g59
NtRp5132
(dp5133
g62
(dp5134
g70
I1
ssg71
g5128
sg64
(lp5135
I00
asbasbasbag57
(g73
g59
NtRp5136
(dp5137
g62
(dp5138
sg71
g5108
sg64
(lp5139
g57
(g78
g59
NtRp5140
(dp5141
g62
(dp5142
sg71
g5136
sg64
(lp5143
g57
(g58
g59
NtRp5144
(dp5145
g62
(dp5146
g70
I1
ssg71
g5140
sg64
(lp5147
g4552
asbasbasbag57
(g73
g59
NtRp5148
(dp5149
g62
(dp5150
sg71
g5108
sg64
(lp5151
g57
(g78
g59
NtRp5152
(dp5153
g62
(dp5154
sg71
g5148
sg64
(lp5155
g57
(g58
g59
NtRp5156
(dp5157
g62
(dp5158
g70
I1
ssg71
g5152
sg64
(lp5159
(lp5160
(g4568
I00
g4566
tp5161
a(g4578
I00
g4576
tp5162
a(g4588
I00
g4586
tp5163
a(g4598
I00
g4596
tp5164
a(g4608
I00
g4606
tp5165
a(g4618
I00
g4616
tp5166
a(g4628
I00
g4626
tp5167
a(g4638
I00
g4636
tp5168
a(g4648
I00
g4646
tp5169
a(g4658
I00
g4656
tp5170
a(g4668
I00
g4666
tp5171
aasbasbasbasbasbasbasbag57
(g73
g59
NtRp5172
(dp5173
g62
(dp5174
sg71
g4966
sg64
(lp5175
g57
(g78
g59
NtRp5176
(dp5177
g62
(dp5178
sg71
g5172
sg64
(lp5179
g57
(g58
g59
NtRp5180
(dp5181
g62
(dp5182
g70
I2
ssg71
g5176
sg64
(lp5183
g57
(g66
g59
NtRp5184
(dp5185
g62
(dp5186
g70
I1
ssg71
Nsg64
(lp5187
g57
(g73
g59
NtRp5188
(dp5189
g62
(dp5190
sg71
g5184
sg64
(lp5191
g57
(g78
g59
NtRp5192
(dp5193
g62
(dp5194
sg71
g5188
sg64
(lp5195
g57
(g58
g59
NtRp5196
(dp5197
g62
(dp5198
g70
I1
ssg71
g5192
sg64
(lp5199
g4678
asbasbasbag57
(g73
g59
NtRp5200
(dp5201
g62
(dp5202
sg71
g5184
sg64
(lp5203
g57
(g78
g59
NtRp5204
(dp5205
g62
(dp5206
sg71
g5200
sg64
(lp5207
g57
(g58
g59
NtRp5208
(dp5209
g62
(dp5210
g70
I1
ssg71
g5204
sg64
(lp5211
I00
asbasbasbag57
(g73
g59
NtRp5212
(dp5213
g62
(dp5214
sg71
g5184
sg64
(lp5215
g57
(g78
g59
NtRp5216
(dp5217
g62
(dp5218
sg71
g5212
sg64
(lp5219
g57
(g58
g59
NtRp5220
(dp5221
g62
(dp5222
g70
I1
ssg71
g5216
sg64
(lp5223
g4676
asbasbasbag57
(g73
g59
NtRp5224
(dp5225
g62
(dp5226
sg71
g5184
sg64
(lp5227
g57
(g78
g59
NtRp5228
(dp5229
g62
(dp5230
sg71
g5224
sg64
(lp5231
g57
(g58
g59
NtRp5232
(dp5233
g62
(dp5234
g70
I1
ssg71
g5228
sg64
(lp5235
(lp5236
(g4692
I00
g4690
tp5237
a(g4702
I00
g4700
tp5238
a(g4712
I00
g4710
tp5239
a(g4722
I00
g4720
tp5240
a(g4732
I00
g4730
tp5241
a(g4742
I00
g4740
tp5242
a(g4752
I00
g4750
tp5243
a(g4762
I00
g4760
tp5244
a(g4772
I00
g4770
tp5245
a(g4782
I00
g4780
tp5246
a(g4792
I00
g4790
tp5247
a(g4802
I00
g4800
tp5248
a(g4812
I00
g4810
tp5249
a(g4822
I00
g4820
tp5250
a(g4832
I00
g4830
tp5251
a(g4842
I00
g4840
tp5252
aasbasbasbasbasbasbasbag57
(g73
g59
NtRp5253
(dp5254
g62
(dp5255
sg71
g4966
sg64
(lp5256
g57
(g78
g59
NtRp5257
(dp5258
g62
(dp5259
sg71
g5253
sg64
(lp5260
g57
(g58
g59
NtRp5261
(dp5262
g62
(dp5263
g70
I2
ssg71
g5257
sg64
(lp5264
g57
(g66
g59
NtRp5265
(dp5266
g62
(dp5267
g70
I1
ssg71
Nsg64
(lp5268
g57
(g73
g59
NtRp5269
(dp5270
g62
(dp5271
sg71
g5265
sg64
(lp5272
g57
(g78
g59
NtRp5273
(dp5274
g62
(dp5275
sg71
g5269
sg64
(lp5276
g57
(g58
g59
NtRp5277
(dp5278
g62
(dp5279
g70
I1
ssg71
g5273
sg64
(lp5280
g4851
asbasbasbag57
(g73
g59
NtRp5281
(dp5282
g62
(dp5283
sg71
g5265
sg64
(lp5284
g57
(g78
g59
NtRp5285
(dp5286
g62
(dp5287
sg71
g5281
sg64
(lp5288
g57
(g58
g59
NtRp5289
(dp5290
g62
(dp5291
g70
I1
ssg71
g5285
sg64
(lp5292
I00
asbasbasbag57
(g73
g59
NtRp5293
(dp5294
g62
(dp5295
sg71
g5265
sg64
(lp5296
g57
(g78
g59
NtRp5297
(dp5298
g62
(dp5299
sg71
g5293
sg64
(lp5300
g57
(g58
g59
NtRp5301
(dp5302
g62
(dp5303
g70
I1
ssg71
g5297
sg64
(lp5304
Nasbasbasbag57
(g73
g59
NtRp5305
(dp5306
g62
(dp5307
sg71
g5265
sg64
(lp5308
g57
(g78
g59
NtRp5309
(dp5310
g62
(dp5311
sg71
g5305
sg64
(lp5312
g57
(g58
g59
NtRp5313
(dp5314
g62
(dp5315
g70
I1
ssg71
g5309
sg64
(lp5316
(lp5317
(g4865
I00
g4863
tp5318
a(g4875
I00
g4873
tp5319
a(g4885
I00
g4883
tp5320
aasbasbasbasbasbasbasbag57
(g73
g59
NtRp5321
(dp5322
g62
(dp5323
sg71
g4966
sg64
(lp5324
g57
(g78
g59
NtRp5325
(dp5326
g62
(dp5327
sg71
g5321
sg64
(lp5328
g57
(g58
g59
NtRp5329
(dp5330
g62
(dp5331
g70
I2
ssg71
g5325
sg64
(lp5332
g57
(g66
g59
NtRp5333
(dp5334
g62
(dp5335
g70
I1
ssg71
Nsg64
(lp5336
g57
(g73
g59
NtRp5337
(dp5338
g62
(dp5339
sg71
g5333
sg64
(lp5340
g57
(g78
g59
NtRp5341
(dp5342
g62
(dp5343
sg71
g5337
sg64
(lp5344
g57
(g58
g59
NtRp5345
(dp5346
g62
(dp5347
g70
I1
ssg71
g5341
sg64
(lp5348
g4894
asbasbasbag57
(g73
g59
NtRp5349
(dp5350
g62
(dp5351
sg71
g5333
sg64
(lp5352
g57
(g78
g59
NtRp5353
(dp5354
g62
(dp5355
sg71
g5349
sg64
(lp5356
g57
(g58
g59
NtRp5357
(dp5358
g62
(dp5359
g70
I1
ssg71
g5353
sg64
(lp5360
I00
asbasbasbag57
(g73
g59
NtRp5361
(dp5362
g62
(dp5363
sg71
g5333
sg64
(lp5364
g57
(g78
g59
NtRp5365
(dp5366
g62
(dp5367
sg71
g5361
sg64
(lp5368
g57
(g58
g59
NtRp5369
(dp5370
g62
(dp5371
g70
I1
ssg71
g5365
sg64
(lp5372
Nasbasbasbag57
(g73
g59
NtRp5373
(dp5374
g62
(dp5375
sg71
g5333
sg64
(lp5376
g57
(g78
g59
NtRp5377
(dp5378
g62
(dp5379
sg71
g5373
sg64
(lp5380
g57
(g58
g59
NtRp5381
(dp5382
g62
(dp5383
g70
I1
ssg71
g5377
sg64
(lp5384
(lp5385
(g4908
I00
g4906
tp5386
a(g4917
I00
g4636
tp5387
a(g4926
I00
g4646
tp5388
aasbasbasbasbasbasbasbasbasbasbasbasbasbasbasbasbasbasbasbag57
(g73
g59
NtRp5389
(dp5390
g62
(dp5391
sg71
g3669
sg64
(lp5392
g57
(g78
g59
NtRp5393
(dp5394
g62
(dp5395
g82
g83
ssg71
g5389
sg64
(lp5396
S'meta'
p5397
asbag57
(g78
g59
NtRp5398
(dp5399
g62
(dp5400
g89
g90
ssg71
g5389
sg64
(lp5401
S':'
asbag57
(g78
g59
NtRp5402
(dp5403
g62
(dp5404
sg71
g5389
sg64
(lp5405
g57
(g58
g59
NtRp5406
(dp5407
g62
(dp5408
g70
I5
ssg71
g5402
sg64
(lp5409
g57
(g66
g59
NtRp5410
(dp5411
g62
(dp5412
g70
I4
ssg71
Nsg64
(lp5413
g57
(g73
g59
NtRp5414
(dp5415
g62
(dp5416
sg71
g5410
sg64
(lp5417
g57
(g78
g59
NtRp5418
(dp5419
g62
(dp5420
g82
g83
ssg71
g5414
sg64
(lp5421
S'author'
p5422
asbag57
(g78
g59
NtRp5423
(dp5424
g62
(dp5425
g89
g90
ssg71
g5414
sg64
(lp5426
S':'
asbag57
(g78
g59
NtRp5427
(dp5428
g62
(dp5429
sg71
g5414
sg64
(lp5430
g57
(g58
g59
NtRp5431
(dp5432
g62
(dp5433
g70
I4
ssg71
g5427
sg64
(lp5434
S'Your Name <you@example.com>'
p5435
asbasbasbag57
(g73
g59
NtRp5436
(dp5437
g62
(dp5438
sg71
g5410
sg64
(lp5439
g57
(g78
g59
NtRp5440
(dp5441
g62
(dp5442
g82
g83
ssg71
g5436
sg64
(lp5443
S'copyright'
p5444
asbag57
(g78
g59
NtRp5445
(dp5446
g62
(dp5447
g89
g90
ssg71
g5436
sg64
(lp5448
S':'
asbag57
(g78
g59
NtRp5449
(dp5450
g62
(dp5451
sg71
g5436
sg64
(lp5452
g57
(g58
g59
NtRp5453
(dp5454
g62
(dp5455
g70
I4
ssg71
g5449
sg64
(lp5456
S'Copyright 2011'
p5457
asbasbasbag57
(g73
g59
NtRp5458
(dp5459
g62
(dp5460
sg71
g5410
sg64
(lp5461
g57
(g78
g59
NtRp5462
(dp5463
g62
(dp5464
g82
g83
ssg71
g5458
sg64
(lp5465
S'description'
p5466
asbag57
(g78
g59
NtRp5467
(dp5468
g62
(dp5469
g89
g90
ssg71
g5458
sg64
(lp5470
S':'
asbag57
(g78
g59
NtRp5471
(dp5472
g62
(dp5473
sg71
g5458
sg64
(lp5474
g57
(g58
g59
NtRp5475
(dp5476
g62
(dp5477
g70
I4
ssg71
g5471
sg64
(lp5478
S'a cool new app'
p5479
asbasbasbag57
(g73
g59
NtRp5480
(dp5481
g62
(dp5482
sg71
g5410
sg64
(lp5483
g57
(g78
g59
NtRp5484
(dp5485
g62
(dp5486
g82
g83
ssg71
g5480
sg64
(lp5487
S'generator'
p5488
asbag57
(g78
g59
NtRp5489
(dp5490
g62
(dp5491
g89
g90
ssg71
g5480
sg64
(lp5492
S':'
asbag57
(g78
g59
NtRp5493
(dp5494
g62
(dp5495
sg71
g5480
sg64
(lp5496
g57
(g58
g59
NtRp5497
(dp5498
g62
(dp5499
g70
I4
ssg71
g5493
sg64
(lp5500
S'Web2py Web Framework'
p5501
asbasbasbag57
(g73
g59
NtRp5502
(dp5503
g62
(dp5504
sg71
g5410
sg64
(lp5505
g57
(g78
g59
NtRp5506
(dp5507
g62
(dp5508
g82
g83
ssg71
g5502
sg64
(lp5509
S'keywords'
p5510
asbag57
(g78
g59
NtRp5511
(dp5512
g62
(dp5513
g89
g90
ssg71
g5502
sg64
(lp5514
S':'
asbag57
(g78
g59
NtRp5515
(dp5516
g62
(dp5517
sg71
g5502
sg64
(lp5518
g57
(g58
g59
NtRp5519
(dp5520
g62
(dp5521
g70
I4
ssg71
g5515
sg64
(lp5522
S'web2py, python, framework'
p5523
asbasbasbasbasbasbasbag57
(g73
g59
NtRp5524
(dp5525
g62
(dp5526
sg71
g3669
sg64
(lp5527
g57
(g78
g59
NtRp5528
(dp5529
g62
(dp5530
g82
g83
ssg71
g5524
sg64
(lp5531
S'postprocessing'
p5532
asbag57
(g78
g59
NtRp5533
(dp5534
g62
(dp5535
g89
g90
ssg71
g5524
sg64
(lp5536
S':'
asbag57
(g78
g59
NtRp5537
(dp5538
g62
(dp5539
sg71
g5524
sg64
(lp5540
g57
(g58
g59
NtRp5541
(dp5542
g62
(dp5543
g70
I5
ssg71
g5537
sg64
(lp5544
g57
(g66
g59
NtRp5545
(dp5546
g62
(dp5547
g70
I4
ssg71
Nsg64
(lp5548
sbasbasbasbag57
(g73
g59
NtRp5549
(dp5550
g62
(dp5551
sg71
g3669
sg64
(lp5552
g57
(g78
g59
NtRp5553
(dp5554
g62
(dp5555
g82
g83
ssg71
g5549
sg64
(lp5556
S'session_file'
p5557
asbag57
(g78
g59
NtRp5558
(dp5559
g62
(dp5560
g89
g90
ssg71
g5549
sg64
(lp5561
S':'
asbag57
(g78
g59
NtRp5562
(dp5563
g62
(dp5564
sg71
g5549
sg64
(lp5565
g57
(g58
g59
NtRp5566
(dp5567
g62
(dp5568
g70
I5
ssg71
g5562
sg64
(lp5569
S"<open file '/home/manikanta/Study/web2py/applications/Just_Click_/sessions/127.0.0.1-03949bd9-4000-4d26-9ac1-c5dfe5f7bdd0', mode 'rb+' at 0xaf643e90>"
p5570
asbasbasbag57
(g73
g59
NtRp5571
(dp5572
g62
(dp5573
sg71
g3669
sg64
(lp5574
g57
(g78
g59
NtRp5575
(dp5576
g62
(dp5577
g82
g83
ssg71
g5571
sg64
(lp5578
S'session_filename'
p5579
asbag57
(g78
g59
NtRp5580
(dp5581
g62
(dp5582
g89
g90
ssg71
g5571
sg64
(lp5583
S':'
asbag57
(g78
g59
NtRp5584
(dp5585
g62
(dp5586
sg71
g5571
sg64
(lp5587
g57
(g58
g59
NtRp5588
(dp5589
g62
(dp5590
g70
I5
ssg71
g5584
sg64
(lp5591
S'/home/manikanta/Study/web2py/applications/Just_Click_/sessions/127.0.0.1-03949bd9-4000-4d26-9ac1-c5dfe5f7bdd0'
p5592
asbasbasbag57
(g73
g59
NtRp5593
(dp5594
g62
(dp5595
sg71
g3669
sg64
(lp5596
g57
(g78
g59
NtRp5597
(dp5598
g62
(dp5599
g82
g83
ssg71
g5593
sg64
(lp5600
S'session_id'
p5601
asbag57
(g78
g59
NtRp5602
(dp5603
g62
(dp5604
g89
g90
ssg71
g5593
sg64
(lp5605
S':'
asbag57
(g78
g59
NtRp5606
(dp5607
g62
(dp5608
sg71
g5593
sg64
(lp5609
g57
(g58
g59
NtRp5610
(dp5611
g62
(dp5612
g70
I5
ssg71
g5606
sg64
(lp5613
S'127.0.0.1-03949bd9-4000-4d26-9ac1-c5dfe5f7bdd0'
p5614
asbasbasbag57
(g73
g59
NtRp5615
(dp5616
g62
(dp5617
sg71
g3669
sg64
(lp5618
g57
(g78
g59
NtRp5619
(dp5620
g62
(dp5621
g82
g83
ssg71
g5615
sg64
(lp5622
S'session_id_name'
p5623
asbag57
(g78
g59
NtRp5624
(dp5625
g62
(dp5626
g89
g90
ssg71
g5615
sg64
(lp5627
S':'
asbag57
(g78
g59
NtRp5628
(dp5629
g62
(dp5630
sg71
g5615
sg64
(lp5631
g57
(g58
g59
NtRp5632
(dp5633
g62
(dp5634
g70
I5
ssg71
g5628
sg64
(lp5635
g3726
asbasbasbag57
(g73
g59
NtRp5636
(dp5637
g62
(dp5638
sg71
g3669
sg64
(lp5639
g57
(g78
g59
NtRp5640
(dp5641
g62
(dp5642
g82
g83
ssg71
g5636
sg64
(lp5643
S'session_locked'
p5644
asbag57
(g78
g59
NtRp5645
(dp5646
g62
(dp5647
g89
g90
ssg71
g5636
sg64
(lp5648
S':'
asbag57
(g78
g59
NtRp5649
(dp5650
g62
(dp5651
sg71
g5636
sg64
(lp5652
g57
(g58
g59
NtRp5653
(dp5654
g62
(dp5655
g70
I5
ssg71
g5649
sg64
(lp5656
g1876
asbasbasbag57
(g73
g59
NtRp5657
(dp5658
g62
(dp5659
sg71
g3669
sg64
(lp5660
g57
(g78
g59
NtRp5661
(dp5662
g62
(dp5663
g82
g83
ssg71
g5657
sg64
(lp5664
S'session_new'
p5665
asbag57
(g78
g59
NtRp5666
(dp5667
g62
(dp5668
g89
g90
ssg71
g5657
sg64
(lp5669
S':'
asbag57
(g78
g59
NtRp5670
(dp5671
g62
(dp5672
sg71
g5657
sg64
(lp5673
g57
(g58
g59
NtRp5674
(dp5675
g62
(dp5676
g70
I5
ssg71
g5670
sg64
(lp5677
g100
asbasbasbag57
(g73
g59
NtRp5678
(dp5679
g62
(dp5680
sg71
g3669
sg64
(lp5681
g57
(g78
g59
NtRp5682
(dp5683
g62
(dp5684
g82
g83
ssg71
g5678
sg64
(lp5685
S'status'
p5686
asbag57
(g78
g59
NtRp5687
(dp5688
g62
(dp5689
g89
g90
ssg71
g5678
sg64
(lp5690
S':'
asbag57
(g78
g59
NtRp5691
(dp5692
g62
(dp5693
sg71
g5678
sg64
(lp5694
g57
(g58
g59
NtRp5695
(dp5696
g62
(dp5697
g70
I5
ssg71
g5691
sg64
(lp5698
S'200'
p5699
asbasbasbag57
(g73
g59
NtRp5700
(dp5701
g62
(dp5702
sg71
g3669
sg64
(lp5703
g57
(g78
g59
NtRp5704
(dp5705
g62
(dp5706
g82
g83
ssg71
g5700
sg64
(lp5707
S'subtitle'
p5708
asbag57
(g78
g59
NtRp5709
(dp5710
g62
(dp5711
g89
g90
ssg71
g5700
sg64
(lp5712
S':'
asbag57
(g78
g59
NtRp5713
(dp5714
g62
(dp5715
sg71
g5700
sg64
(lp5716
g57
(g58
g59
NtRp5717
(dp5718
g62
(dp5719
g70
I5
ssg71
g5713
sg64
(lp5720
g4317
(S's\r\x00\x00\x00customize me!'
tRp5721
asbasbasbag57
(g73
g59
NtRp5722
(dp5723
g62
(dp5724
sg71
g3669
sg64
(lp5725
g57
(g78
g59
NtRp5726
(dp5727
g62
(dp5728
g82
g83
ssg71
g5722
sg64
(lp5729
S'title'
p5730
asbag57
(g78
g59
NtRp5731
(dp5732
g62
(dp5733
g89
g90
ssg71
g5722
sg64
(lp5734
S':'
asbag57
(g78
g59
NtRp5735
(dp5736
g62
(dp5737
sg71
g5722
sg64
(lp5738
g57
(g58
g59
NtRp5739
(dp5740
g62
(dp5741
g70
I5
ssg71
g5735
sg64
(lp5742
S'Just Click '
p5743
asbasbasbag57
(g73
g59
NtRp5744
(dp5745
g62
(dp5746
sg71
g3669
sg64
(lp5747
g57
(g78
g59
NtRp5748
(dp5749
g62
(dp5750
g82
g83
ssg71
g5744
sg64
(lp5751
g2561
asbag57
(g78
g59
NtRp5752
(dp5753
g62
(dp5754
g89
g90
ssg71
g5744
sg64
(lp5755
S':'
asbag57
(g78
g59
NtRp5756
(dp5757
g62
(dp5758
sg71
g5744
sg64
(lp5759
g57
(g58
g59
NtRp5760
(dp5761
g62
(dp5762
g70
I5
ssg71
g5756
sg64
(lp5763
g2574
asbasbasbag57
(g73
g59
NtRp5764
(dp5765
g62
(dp5766
sg71
g3669
sg64
(lp5767
g57
(g78
g59
NtRp5768
(dp5769
g62
(dp5770
g82
g83
ssg71
g5764
sg64
(lp5771
S'view'
p5772
asbag57
(g78
g59
NtRp5773
(dp5774
g62
(dp5775
g89
g90
ssg71
g5764
sg64
(lp5776
S':'
asbag57
(g78
g59
NtRp5777
(dp5778
g62
(dp5779
sg71
g5764
sg64
(lp5780
g57
(g58
g59
NtRp5781
(dp5782
g62
(dp5783
g70
I5
ssg71
g5777
sg64
(lp5784
S'default/show.html'
p5785
asbasbasbasbasbsS'locals'
p5786
(dp5787
S'OBJECT'
p5788
S"<class 'gluon.html.OBJECT'>"
p5789
sS'SQLDB'
p5790
S"<class 'gluon.dal.DAL'>"
p5791
sg3276
S"<Storage {'_formkey[comment/None]': 'eca51c9a-07... {'version': '21.0.1180.89', 'name': 'Chrome'}}}>"
p5792
sS'LINK'
p5793
S"<class 'gluon.html.LINK'>"
p5794
sS'BR'
p5795
S"<class 'gluon.html.BR'>"
p5796
sS'local_import'
p5797
S'<function <lambda>>'
p5798
sS'OPTGROUP'
p5799
S"<class 'gluon.html.OPTGROUP'>"
p5800
sS'__package__'
p5801
S'None'
p5802
sS'PRE'
p5803
S"<class 'gluon.html.PRE'>"
p5804
sS'IS_INT_IN_RANGE'
p5805
S"<class 'gluon.validators.IS_INT_IN_RANGE'>"
p5806
sS'left_sidebar_enabled'
p5807
g100
sS'IS_LOWER'
p5808
S"<class 'gluon.validators.IS_LOWER'>"
p5809
sS'IS_STRONG'
p5810
S"<class 'gluon.validators.IS_STRONG'>"
p5811
sS'cache'
p5812
S'<gluon.cache.Cache object>'
p5813
sS'IS_IN_DB'
p5814
S"<class 'gluon.validators.IS_IN_DB'>"
p5815
sS'TAG'
p5816
S'<gluon.html.__TAG__ object>'
p5817
sS'SQLField'
p5818
S"<class 'gluon.dal.Field'>"
p5819
sS'BODY'
p5820
S"<class 'gluon.html.BODY'>"
p5821
sS'IS_DATE_IN_RANGE'
p5822
S"<class 'gluon.validators.IS_DATE_IN_RANGE'>"
p5823
sS'TH'
p5824
S"<class 'gluon.html.TH'>"
p5825
sS'URL'
p5826
S'<function URL>'
p5827
sS'__file__'
p5828
S"'/home/manikanta/Study/web2py/applications/Just_Click_/views/default/show.html'"
p5829
sS'db'
p5830
S"<DAL {'comment': <Table {'body': <gluon.dal.Fiel..._key': <gluon.dal.Field object at 0xaf3a5a0c>}>}>"
p5831
sS'auth'
p5832
S'<gluon.tools.Auth object>'
p5833
sS'P'
S"<class 'gluon.html.P'>"
p5834
sS'TFOOT'
p5835
S"<class 'gluon.html.TFOOT'>"
p5836
sS'XHTML'
p5837
S"<class 'gluon.html.XHTML'>"
p5838
sS'ON'
p5839
g1876
sS'OL'
p5840
S"<class 'gluon.html.OL'>"
p5841
sS'TEXTAREA'
p5842
S"<class 'gluon.html.TEXTAREA'>"
p5843
sS'MENU'
p5844
S"<class 'gluon.html.MENU'>"
p5845
sS'LOAD'
p5846
S'<function LOAD>'
p5847
sS'CODE'
p5848
S"<class 'gluon.html.CODE'>"
p5849
sS'HTTP'
p5850
S"<class 'gluon.http.HTTP'>"
p5851
sS'HR'
p5852
S"<class 'gluon.html.HR'>"
p5853
sS'IS_DATETIME'
p5854
S"<class 'gluon.validators.IS_DATETIME'>"
p5855
sS'HEAD'
p5856
S"<class 'gluon.html.HEAD'>"
p5857
sS'LABEL'
p5858
S"<class 'gluon.html.LABEL'>"
p5859
sS'CLEANUP'
p5860
S"<class 'gluon.validators.CLEANUP'>"
p5861
sS'images'
p5862
S'<gluon.dal.Rows object>'
p5863
sS'SELECT'
p5864
S"<class 'gluon.html.SELECT'>"
p5865
sS'CENTER'
p5866
S"<class 'gluon.html.CENTER'>"
p5867
sS'Crud'
p5868
S"<class 'gluon.tools.Crud'>"
p5869
sS'Auth'
p5870
S"<class 'gluon.tools.Auth'>"
p5871
sS'__builtins__'
p5872
S"{'ArithmeticError': <type 'exceptions.ArithmeticError'>, 'AssertionError': <type 'exceptions.AssertionError'>, 'AttributeError': <type 'exceptions.AttributeError'>, 'BaseException': <type 'exceptions.BaseException'>, 'BufferError': <type 'exceptions.BufferError'>, 'BytesWarning': <type 'exceptions.BytesWarning'>, 'DeprecationWarning': <type 'exceptions.DeprecationWarning'>, 'EOFError': <type 'exceptions.EOFError'>, 'Ellipsis': Ellipsis, 'EnvironmentError': <type 'exceptions.EnvironmentError'>, ...}"
p5873
sS'HTML'
p5874
S"<class 'gluon.html.HTML'>"
p5875
sS'SQLFORM'
p5876
S"<class 'gluon.sqlhtml.SQLFORM'>"
p5877
sS'EM'
p5878
S"<class 'gluon.html.EM'>"
p5879
sS'redirect'
p5880
S'<function redirect>'
p5881
sS'FIELDSET'
p5882
S"<class 'gluon.html.FIELDSET'>"
p5883
sS'IS_EQUAL_TO'
p5884
S"<class 'gluon.validators.IS_EQUAL_TO'>"
p5885
sS'embed64'
p5886
S'<function embed64>'
p5887
sS'IS_LIST_OF'
p5888
S"<class 'gluon.validators.IS_LIST_OF'>"
p5889
sS'__name__'
p5890
S"'__restricted__'"
p5891
sS'EMBED'
p5892
S"<class 'gluon.html.EMBED'>"
p5893
sS'_'
S'<function _>'
p5894
sS'FORM'
p5895
S"<class 'gluon.html.FORM'>"
p5896
sS'H2'
p5897
S"<class 'gluon.html.H2'>"
p5898
sS'H3'
p5899
S"<class 'gluon.html.H3'>"
p5900
sS'BUTTON'
p5901
S"<class 'gluon.html.BUTTON'>"
p5902
sS'H1'
p5903
S"<class 'gluon.html.H1'>"
p5904
sS'H6'
p5905
S"<class 'gluon.html.H6'>"
p5906
sS'H4'
p5907
S"<class 'gluon.html.H4'>"
p5908
sS'H5'
p5909
S"<class 'gluon.html.H5'>"
p5910
sS'UL'
p5911
S"<class 'gluon.html.UL'>"
p5912
sS'IS_UPPER'
p5913
S"<class 'gluon.validators.IS_UPPER'>"
p5914
sS'w'
S"'Admin_1'"
p5915
sS'xmlescape'
p5916
S'<function xmlescape>'
p5917
sS'IS_TIME'
p5918
S"<class 'gluon.validators.IS_TIME'>"
p5919
sS'OPTION'
p5920
S"<class 'gluon.html.OPTION'>"
p5921
sS'TITLE'
p5922
S"<class 'gluon.html.TITLE'>"
p5923
sS'CRYPT'
p5924
S"<class 'gluon.validators.CRYPT'>"
p5925
sS'image'
p5926
S'None'
p5927
sS'IS_EMPTY_OR'
p5928
S"<class 'gluon.validators.IS_EMPTY_OR'>"
p5929
sS'MARKMIN'
p5930
S"<class 'gluon.html.MARKMIN'>"
p5931
sS'INPUT'
p5932
S"<class 'gluon.html.INPUT'>"
p5933
sS'COL'
p5934
S"<class 'gluon.html.COL'>"
p5935
sS'SCRIPT'
p5936
S"<class 'gluon.html.SCRIPT'>"
p5937
sS'is_mobile'
p5938
g100
sS'TABLE'
p5939
S"<class 'gluon.html.TABLE'>"
p5940
sS'IS_IPV4'
p5941
S"<class 'gluon.validators.IS_IPV4'>"
p5942
sS'IS_LENGTH'
p5943
S"<class 'gluon.validators.IS_LENGTH'>"
p5944
sS'XML'
p5945
S"<class 'gluon.html.XML'>"
p5946
sS'B'
S"<class 'gluon.html.B'>"
p5947
sS'IMG'
p5948
S"<class 'gluon.html.IMG'>"
p5949
sS'SQLTABLE'
p5950
S"<class 'gluon.sqlhtml.SQLTABLE'>"
p5951
sS'IS_MATCH'
p5952
S"<class 'gluon.validators.IS_MATCH'>"
p5953
sS'IS_ALPHANUMERIC'
p5954
S"<class 'gluon.validators.IS_ALPHANUMERIC'>"
p5955
sS'SPAN'
p5956
S"<class 'gluon.html.SPAN'>"
p5957
sS'IS_SLUG'
p5958
S"<class 'gluon.validators.IS_SLUG'>"
p5959
sS'BEAUTIFY'
p5960
S"<class 'gluon.html.BEAUTIFY'>"
p5961
sS'META'
p5962
S"<class 'gluon.html.META'>"
p5963
sS'IS_DATE'
p5964
S"<class 'gluon.validators.IS_DATE'>"
p5965
sS'IS_EMAIL'
p5966
S"<class 'gluon.validators.IS_EMAIL'>"
p5967
sS'IS_NOT_EMPTY'
p5968
S"<class 'gluon.validators.IS_NOT_EMPTY'>"
p5969
sg56
S"<Storage {'body': <cStringIO.StringO object at 0..._vars': <Storage {}>, 'post_vars': <Storage {}>}>"
p5970
sS'TBODY'
p5971
S"<class 'gluon.html.TBODY'>"
p5972
sS'CAT'
p5973
S"<class 'gluon.html.CAT'>"
p5974
sS'Field'
p5975
S"<class 'gluon.dal.Field'>"
p5976
sS'middle_columns'
p5977
S"'sixteen'"
p5978
sS'DIV'
p5979
S"<class 'gluon.html.DIV'>"
p5980
sS'LEGEND'
p5981
S"<class 'gluon.html.LEGEND'>"
p5982
sS'COLGROUP'
p5983
S"<class 'gluon.html.COLGROUP'>"
p5984
sS'DAL'
p5985
S"<class 'gluon.dal.DAL'>"
p5986
sS'TT'
p5987
S"<class 'gluon.html.TT'>"
p5988
sS'TR'
p5989
S"<class 'gluon.html.TR'>"
p5990
sS'LI'
p5991
S"<class 'gluon.html.LI'>"
p5992
sS'right_sidebar_enabled'
p5993
g100
sS'IFRAME'
p5994
S"<class 'gluon.html.IFRAME'>"
p5995
sS'TD'
p5996
S"<class 'gluon.html.TD'>"
p5997
sS'IS_URL'
p5998
S"<class 'gluon.validators.IS_URL'>"
p5999
sS'A'
S"<class 'gluon.html.A'>"
p6000
sS'STYLE'
p6001
S"<class 'gluon.html.STYLE'>"
p6002
sS'IS_DATETIME_IN_RANGE'
p6003
S"<class 'gluon.validators.IS_DATETIME_IN_RANGE'>"
p6004
sS'IS_IMAGE'
p6005
S"<class 'gluon.validators.IS_IMAGE'>"
p6006
sS'I'
S"<class 'gluon.html.I'>"
p6007
sS'crud'
p6008
S'<gluon.tools.Crud object>'
p6009
sS'IS_NOT_IN_DB'
p6010
S"<class 'gluon.validators.IS_NOT_IN_DB'>"
p6011
sg3664
S"<Storage {'body': <cStringIO.StringO object at 0...da> at 0xaf208304>, 'view': 'default/show.html'}>"
p6012
sS'THEAD'
p6013
S"<class 'gluon.html.THEAD'>"
p6014
sS'IS_NULL_OR'
p6015
S"<class 'gluon.validators.IS_EMPTY_OR'>"
p6016
sS'IS_FLOAT_IN_RANGE'
p6017
S"<class 'gluon.validators.IS_FLOAT_IN_RANGE'>"
p6018
sS'IS_EXPR'
p6019
S"<class 'gluon.validators.IS_EXPR'>"
p6020
sS'T'
S'<gluon.languages.translator object>'
p6021
sS'IS_IN_SET'
p6022
S"<class 'gluon.validators.IS_IN_SET'>"
p6023
sS'IS_UPLOAD_FILENAME'
p6024
S"<class 'gluon.validators.IS_UPLOAD_FILENAME'>"
p6025
sS'IS_DECIMAL_IN_RANGE'
p6026
S"<class 'gluon.validators.IS_DECIMAL_IN_RANGE'>"
p6027
sssS'traceback'
p6028
S'Traceback (most recent call last):\n  File "/home/manikanta/Study/web2py/gluon/restricted.py", line 205, in restricted\n    exec ccode in environment\n  File "/home/manikanta/Study/web2py/applications/Just_Click_/views/default/show.html", line 90, in <module>\nAttributeError: \'NoneType\' object has no attribute \'uploaded_by\'\n'
p6029
s.